Archive member included to satisfy reference by file (symbol)

E:/uC-Soft/TI/TIRTOS/PDK_AM~1/packages/ti/starterware/binary/examples/example_utils/lib/am335x-evm/a8/debug/gcc\libexample_utils.a(example_utils_mmu.o)
                              E:/uC-Soft/TI/TIRTOS/PDK_AM~1/packages/ti/starterware/binary/uart_app_echo/obj/am335x-evm/a8host/debug/gcc/echo_app_main.o (MMUConfigAndEnable)
E:/uC-Soft/TI/TIRTOS/PDK_AM~1/packages/ti/starterware/binary/examples/example_utils/lib/am335x-evm/a8/debug/gcc\libexample_utils.a(dma_utils.o)
                              E:/uC-Soft/TI/TIRTOS/PDK_AM~1/packages/ti/starterware/binary/uart_app_echo/obj/am335x-evm/a8host/debug/gcc/uart_app.o (DMAUtilsDataXferConfig)
E:/uC-Soft/TI/TIRTOS/PDK_AM~1/packages/ti/starterware/binary/examples/example_utils/lib/am335x-evm/a8/debug/gcc\libexample_utils.a(edma_utils.o)
                              E:/uC-Soft/TI/TIRTOS/PDK_AM~1/packages/ti/starterware/binary/examples/example_utils/lib/am335x-evm/a8/debug/gcc\libexample_utils.a(dma_utils.o) (EDMAUtilsInit)
E:/uC-Soft/TI/TIRTOS/PDK_AM~1/packages/ti/starterware/binary/board/lib/am335x-evm/a8/debug/gcc\libboard.a(board.o)
                              E:/uC-Soft/TI/TIRTOS/PDK_AM~1/packages/ti/starterware/binary/uart_app_echo/obj/am335x-evm/a8host/debug/gcc/echo_app_main.o (BOARDInit)
E:/uC-Soft/TI/TIRTOS/PDK_AM~1/packages/ti/starterware/binary/board/lib/am335x-evm/a8/debug/gcc\libboard.a(dcard.o)
                              E:/uC-Soft/TI/TIRTOS/PDK_AM~1/packages/ti/starterware/binary/board/lib/am335x-evm/a8/debug/gcc\libboard.a(board.o) (DCARDIsDevPresent)
E:/uC-Soft/TI/TIRTOS/PDK_AM~1/packages/ti/starterware/binary/board/lib/am335x-evm/a8/debug/gcc\libboard.a(platform.o)
                              E:/uC-Soft/TI/TIRTOS/PDK_AM~1/packages/ti/starterware/binary/board/lib/am335x-evm/a8/debug/gcc\libboard.a(board.o) (PLATFORMGetId)
E:/uC-Soft/TI/TIRTOS/PDK_AM~1/packages/ti/starterware/binary/board/lib/am335x-evm/a8/debug/gcc\libboard.a(pinmux.o)
                              E:/uC-Soft/TI/TIRTOS/PDK_AM~1/packages/ti/starterware/binary/uart_app_echo/obj/am335x-evm/a8host/debug/gcc/uart_app.o (PINMUXModuleConfig)
E:/uC-Soft/TI/TIRTOS/PDK_AM~1/packages/ti/starterware/binary/board/lib/am335x-evm/a8/debug/gcc\libboard.a(board_am335x.o)
                              E:/uC-Soft/TI/TIRTOS/PDK_AM~1/packages/ti/starterware/binary/board/lib/am335x-evm/a8/debug/gcc\libboard.a(board.o) (BoardAm335xInit)
E:/uC-Soft/TI/TIRTOS/PDK_AM~1/packages/ti/starterware/binary/board/lib/am335x-evm/a8/debug/gcc\libboard.a(dcard_am335x.o)
                              E:/uC-Soft/TI/TIRTOS/PDK_AM~1/packages/ti/starterware/binary/board/lib/am335x-evm/a8/debug/gcc\libboard.a(dcard.o) (DCardAm335xInit)
E:/uC-Soft/TI/TIRTOS/PDK_AM~1/packages/ti/starterware/binary/board/lib/am335x-evm/a8/debug/gcc\libboard.a(am335x_gpevm.o)
                              E:/uC-Soft/TI/TIRTOS/PDK_AM~1/packages/ti/starterware/binary/board/lib/am335x-evm/a8/debug/gcc\libboard.a(board_am335x.o) (gBoardAm335xGpevmData)
E:/uC-Soft/TI/TIRTOS/PDK_AM~1/packages/ti/starterware/binary/board/lib/am335x-evm/a8/debug/gcc\libboard.a(am335x_evmsk.o)
                              E:/uC-Soft/TI/TIRTOS/PDK_AM~1/packages/ti/starterware/binary/board/lib/am335x-evm/a8/debug/gcc\libboard.a(board_am335x.o) (gBoardAm335xEvmskData)
E:/uC-Soft/TI/TIRTOS/PDK_AM~1/packages/ti/starterware/binary/board/lib/am335x-evm/a8/debug/gcc\libboard.a(am335x_beaglebone.o)
                              E:/uC-Soft/TI/TIRTOS/PDK_AM~1/packages/ti/starterware/binary/board/lib/am335x-evm/a8/debug/gcc\libboard.a(board_am335x.o) (gBoardAm335xBeagleboneData)
E:/uC-Soft/TI/TIRTOS/PDK_AM~1/packages/ti/starterware/binary/board/lib/am335x-evm/a8/debug/gcc\libboard.a(am335x_beagleboneblack.o)
                              E:/uC-Soft/TI/TIRTOS/PDK_AM~1/packages/ti/starterware/binary/board/lib/am335x-evm/a8/debug/gcc\libboard.a(board_am335x.o) (gBoardAm335xBeagleboneblackData)
E:/uC-Soft/TI/TIRTOS/PDK_AM~1/packages/ti/starterware/binary/board/lib/am335x-evm/a8/debug/gcc\libboard.a(am335x_icev1.o)
                              E:/uC-Soft/TI/TIRTOS/PDK_AM~1/packages/ti/starterware/binary/board/lib/am335x-evm/a8/debug/gcc\libboard.a(board_am335x.o) (gBoardAm335xIceV1Data)
E:/uC-Soft/TI/TIRTOS/PDK_AM~1/packages/ti/starterware/binary/board/lib/am335x-evm/a8/debug/gcc\libboard.a(am335x_icev2.o)
                              E:/uC-Soft/TI/TIRTOS/PDK_AM~1/packages/ti/starterware/binary/board/lib/am335x-evm/a8/debug/gcc\libboard.a(board_am335x.o) (gBoardAm335xIceV2Data)
E:/uC-Soft/TI/TIRTOS/PDK_AM~1/packages/ti/starterware/binary/board/lib/am335x-evm/a8/debug/gcc\libboard.a(am335x_amic110.o)
                              E:/uC-Soft/TI/TIRTOS/PDK_AM~1/packages/ti/starterware/binary/board/lib/am335x-evm/a8/debug/gcc\libboard.a(board_am335x.o) (gBoardAm335xAMIC110Data)
E:/uC-Soft/TI/TIRTOS/PDK_AM~1/packages/ti/starterware/binary/board/lib/am335x-evm/a8/debug/gcc\libboard.a(am335x_custom.o)
                              E:/uC-Soft/TI/TIRTOS/PDK_AM~1/packages/ti/starterware/binary/board/lib/am335x-evm/a8/debug/gcc\libboard.a(board_am335x.o) (gBoardAm335xCustomData)
E:/uC-Soft/TI/TIRTOS/PDK_AM~1/packages/ti/starterware/binary/board/lib/am335x-evm/a8/debug/gcc\libboard.a(am335x_gpevm_pinmux_data.o)
                              E:/uC-Soft/TI/TIRTOS/PDK_AM~1/packages/ti/starterware/binary/board/lib/am335x-evm/a8/debug/gcc\libboard.a(am335x_gpevm.o) (gGpevmPinmuxData)
E:/uC-Soft/TI/TIRTOS/PDK_AM~1/packages/ti/starterware/binary/board/lib/am335x-evm/a8/debug/gcc\libboard.a(am335x_evmsk_pinmux_data.o)
                              E:/uC-Soft/TI/TIRTOS/PDK_AM~1/packages/ti/starterware/binary/board/lib/am335x-evm/a8/debug/gcc\libboard.a(am335x_evmsk.o) (gEvmskPinmuxData)
E:/uC-Soft/TI/TIRTOS/PDK_AM~1/packages/ti/starterware/binary/board/lib/am335x-evm/a8/debug/gcc\libboard.a(am335x_beaglebone_pinmux_data.o)
                              E:/uC-Soft/TI/TIRTOS/PDK_AM~1/packages/ti/starterware/binary/board/lib/am335x-evm/a8/debug/gcc\libboard.a(am335x_beaglebone.o) (gBbPinmuxData)
E:/uC-Soft/TI/TIRTOS/PDK_AM~1/packages/ti/starterware/binary/board/lib/am335x-evm/a8/debug/gcc\libboard.a(am335x_beagleboneblack_pinmux_data.o)
                              E:/uC-Soft/TI/TIRTOS/PDK_AM~1/packages/ti/starterware/binary/board/lib/am335x-evm/a8/debug/gcc\libboard.a(am335x_beagleboneblack.o) (gBbbPinmuxData)
E:/uC-Soft/TI/TIRTOS/PDK_AM~1/packages/ti/starterware/binary/board/lib/am335x-evm/a8/debug/gcc\libboard.a(am335x_icev1_pinmux_data.o)
                              E:/uC-Soft/TI/TIRTOS/PDK_AM~1/packages/ti/starterware/binary/board/lib/am335x-evm/a8/debug/gcc\libboard.a(am335x_icev1.o) (gIceV1PinmuxData)
E:/uC-Soft/TI/TIRTOS/PDK_AM~1/packages/ti/starterware/binary/board/lib/am335x-evm/a8/debug/gcc\libboard.a(am335x_icev2_pinmux_data.o)
                              E:/uC-Soft/TI/TIRTOS/PDK_AM~1/packages/ti/starterware/binary/board/lib/am335x-evm/a8/debug/gcc\libboard.a(am335x_icev2.o) (gIceV2PinmuxData)
E:/uC-Soft/TI/TIRTOS/PDK_AM~1/packages/ti/starterware/binary/board/lib/am335x-evm/a8/debug/gcc\libboard.a(am335x_amic11x_pinmux_data.o)
                              E:/uC-Soft/TI/TIRTOS/PDK_AM~1/packages/ti/starterware/binary/board/lib/am335x-evm/a8/debug/gcc\libboard.a(am335x_amic110.o) (gAMIC11xPinmuxData)
E:/uC-Soft/TI/TIRTOS/PDK_AM~1/packages/ti/starterware/binary/board/lib/am335x-evm/a8/debug/gcc\libboard.a(am335x_lcd4_dcard.o)
                              E:/uC-Soft/TI/TIRTOS/PDK_AM~1/packages/ti/starterware/binary/board/lib/am335x-evm/a8/debug/gcc\libboard.a(dcard_am335x.o) (gDCardAm335xLCD4Data)
E:/uC-Soft/TI/TIRTOS/PDK_AM~1/packages/ti/starterware/binary/utils/lib/am335x-evm/a8/debug/gcc\libutils.a(console_utils.o)
                              E:/uC-Soft/TI/TIRTOS/PDK_AM~1/packages/ti/starterware/binary/examples/example_utils/lib/am335x-evm/a8/debug/gcc\libexample_utils.a(edma_utils.o) (CONSOLEUtilsPuts)
E:/uC-Soft/TI/TIRTOS/PDK_AM~1/packages/ti/starterware/binary/utils/lib/am335x-evm/a8/debug/gcc\libutils.a(i2c_utils.o)
                              E:/uC-Soft/TI/TIRTOS/PDK_AM~1/packages/ti/starterware/binary/board/lib/am335x-evm/a8/debug/gcc\libboard.a(board_am335x.o) (I2CUTILSINITPARAMS_DEFAULT)
E:/uC-Soft/TI/TIRTOS/PDK_AM~1/packages/ti/starterware/binary/utils/lib/am335x-evm/a8/debug/gcc\libutils.a(time_utils.o)
                              E:/uC-Soft/TI/TIRTOS/PDK_AM~1/packages/ti/starterware/binary/board/lib/am335x-evm/a8/debug/gcc\libboard.a(am335x_icev2.o) (DELAYMsec)
E:/uC-Soft/TI/TIRTOS/PDK_AM~1/packages/ti/starterware/binary/utils/lib/am335x-evm/a8/debug/gcc\libutils.a(dmtimer_utils.o)
                              E:/uC-Soft/TI/TIRTOS/PDK_AM~1/packages/ti/starterware/binary/utils/lib/am335x-evm/a8/debug/gcc\libutils.a(time_utils.o) (TIMERUtilFreeRunInit)
E:/uC-Soft/TI/TIRTOS/PDK_AM~1/packages/ti/starterware/binary/utils/lib/am335x-evm/a8/debug/gcc\libutils.a(console_utils_uart.o)
                              E:/uC-Soft/TI/TIRTOS/PDK_AM~1/packages/ti/starterware/binary/utils/lib/am335x-evm/a8/debug/gcc\libutils.a(console_utils.o) (CONSOLEUtilsUartInit)
E:/uC-Soft/TI/TIRTOS/PDK_AM~1/packages/ti/starterware/binary/utils/lib/am335x-evm/a8/debug/gcc\libutils.a(ascii_utils.o)
                              E:/uC-Soft/TI/TIRTOS/PDK_AM~1/packages/ti/starterware/binary/utils/lib/am335x-evm/a8/debug/gcc\libutils.a(console_utils_uart.o) (ASCIIUtilsCharToDigit)
E:/uC-Soft/TI/TIRTOS/PDK_AM~1/packages/ti/starterware/binary/soc/lib/am335x-evm/a8/debug/gcc\libsoc.a(init.o)
                              (Entry)
E:/uC-Soft/TI/TIRTOS/PDK_AM~1/packages/ti/starterware/binary/soc/lib/am335x-evm/a8/debug/gcc\libsoc.a(soc.o)
                              E:/uC-Soft/TI/TIRTOS/PDK_AM~1/packages/ti/starterware/binary/uart_app_echo/obj/am335x-evm/a8host/debug/gcc/echo_app_main.o (SOCGetSocFamilyId)
E:/uC-Soft/TI/TIRTOS/PDK_AM~1/packages/ti/starterware/binary/soc/lib/am335x-evm/a8/debug/gcc\libsoc.a(startup.o)
                              E:/uC-Soft/TI/TIRTOS/PDK_AM~1/packages/ti/starterware/binary/soc/lib/am335x-evm/a8/debug/gcc\libsoc.a(init.o) (start_boot)
E:/uC-Soft/TI/TIRTOS/PDK_AM~1/packages/ti/starterware/binary/soc/lib/am335x-evm/a8/debug/gcc\libsoc.a(am335x_chipdb.o)
                              E:/uC-Soft/TI/TIRTOS/PDK_AM~1/packages/ti/starterware/binary/uart_app_echo/obj/am335x-evm/a8host/debug/gcc/echo_app_main.o (CHIPDBIsResourcePresent)
E:/uC-Soft/TI/TIRTOS/PDK_AM~1/packages/ti/starterware/binary/soc/lib/am335x-evm/a8/debug/gcc\libsoc.a(hw_am335x_chipdb.o)
                              E:/uC-Soft/TI/TIRTOS/PDK_AM~1/packages/ti/starterware/binary/soc/lib/am335x-evm/a8/debug/gcc\libsoc.a(am335x_chipdb.o) (gChipDBResourceIDMap)
E:/uC-Soft/TI/TIRTOS/PDK_AM~1/packages/ti/starterware/binary/soc/lib/am335x-evm/a8/debug/gcc\libsoc.a(hw_am335x_chipdb_baseaddr.o)
                              E:/uC-Soft/TI/TIRTOS/PDK_AM~1/packages/ti/starterware/binary/soc/lib/am335x-evm/a8/debug/gcc\libsoc.a(am335x_chipdb.o) (gChipDBBaseAddrTable)
E:/uC-Soft/TI/TIRTOS/PDK_AM~1/packages/ti/starterware/binary/soc/lib/am335x-evm/a8/debug/gcc\libsoc.a(hw_am335x_chipdb_interrupt.o)
                              E:/uC-Soft/TI/TIRTOS/PDK_AM~1/packages/ti/starterware/binary/soc/lib/am335x-evm/a8/debug/gcc\libsoc.a(am335x_chipdb.o) (gChipDBInterruptTables)
E:/uC-Soft/TI/TIRTOS/PDK_AM~1/packages/ti/starterware/binary/soc/lib/am335x-evm/a8/debug/gcc\libsoc.a(intc.o)
                              E:/uC-Soft/TI/TIRTOS/PDK_AM~1/packages/ti/starterware/binary/uart_app_echo/obj/am335x-evm/a8host/debug/gcc/uart_app.o (INTCInit)
E:/uC-Soft/TI/TIRTOS/PDK_AM~1/packages/ti/starterware/binary/soc/lib/am335x-evm/a8/debug/gcc\libsoc.a(cache_arm.o)
                              E:/uC-Soft/TI/TIRTOS/PDK_AM~1/packages/ti/starterware/binary/uart_app_echo/obj/am335x-evm/a8host/debug/gcc/echo_app_main.o (CACHEEnable)
E:/uC-Soft/TI/TIRTOS/PDK_AM~1/packages/ti/starterware/binary/soc/lib/am335x-evm/a8/debug/gcc\libsoc.a(mmu_arm.o)
                              E:/uC-Soft/TI/TIRTOS/PDK_AM~1/packages/ti/starterware/binary/examples/example_utils/lib/am335x-evm/a8/debug/gcc\libexample_utils.a(example_utils_mmu.o) (MMUInit)
E:/uC-Soft/TI/TIRTOS/PDK_AM~1/packages/ti/starterware/binary/soc/lib/am335x-evm/a8/debug/gcc\libsoc.a(am335x_prcm.o)
                              E:/uC-Soft/TI/TIRTOS/PDK_AM~1/packages/ti/starterware/binary/uart_app_echo/obj/am335x-evm/a8host/debug/gcc/uart_app.o (PRCMModuleEnable)
E:/uC-Soft/TI/TIRTOS/PDK_AM~1/packages/ti/starterware/binary/soc/lib/am335x-evm/a8/debug/gcc\libsoc.a(cp15.o)
                              E:/uC-Soft/TI/TIRTOS/PDK_AM~1/packages/ti/starterware/binary/soc/lib/am335x-evm/a8/debug/gcc\libsoc.a(cache_arm.o) (CP15ICacheDisable)
E:/uC-Soft/TI/TIRTOS/PDK_AM~1/packages/ti/starterware/binary/soc/lib/am335x-evm/a8/debug/gcc\libsoc.a(exceptionhandler.o)
                              E:/uC-Soft/TI/TIRTOS/PDK_AM~1/packages/ti/starterware/binary/soc/lib/am335x-evm/a8/debug/gcc\libsoc.a(startup.o) (IRQHandler)
E:/uC-Soft/TI/TIRTOS/PDK_AM~1/packages/ti/starterware/binary/soc/lib/am335x-evm/a8/debug/gcc\libsoc.a(cpu.o)
                              E:/uC-Soft/TI/TIRTOS/PDK_AM~1/packages/ti/starterware/binary/soc/lib/am335x-evm/a8/debug/gcc\libsoc.a(exceptionhandler.o) (CPUAbortHandler)
E:/uC-Soft/TI/TIRTOS/PDK_AM~1/packages/ti/starterware/binary/dal/lib/am335x-evm/a8/debug/gcc\libdal.a(i2c.o)
                              E:/uC-Soft/TI/TIRTOS/PDK_AM~1/packages/ti/starterware/binary/utils/lib/am335x-evm/a8/debug/gcc\libutils.a(i2c_utils.o) (I2CClkConfig)
E:/uC-Soft/TI/TIRTOS/PDK_AM~1/packages/ti/starterware/binary/dal/lib/am335x-evm/a8/debug/gcc\libdal.a(uart.o)
                              E:/uC-Soft/TI/TIRTOS/PDK_AM~1/packages/ti/starterware/binary/uart_app_echo/obj/am335x-evm/a8host/debug/gcc/uart_app.o (UARTModuleReset)
E:/uC-Soft/TI/TIRTOS/PDK_AM~1/packages/ti/starterware/binary/dal/lib/am335x-evm/a8/debug/gcc\libdal.a(gpio.o)
                              E:/uC-Soft/TI/TIRTOS/PDK_AM~1/packages/ti/starterware/binary/board/lib/am335x-evm/a8/debug/gcc\libboard.a(am335x_gpevm.o) (GPIOModuleEnable)
E:/uC-Soft/TI/TIRTOS/PDK_AM~1/packages/ti/starterware/binary/dal/lib/am335x-evm/a8/debug/gcc\libdal.a(edma.o)
                              E:/uC-Soft/TI/TIRTOS/PDK_AM~1/packages/ti/starterware/binary/examples/example_utils/lib/am335x-evm/a8/debug/gcc\libexample_utils.a(edma_utils.o) (EDMAInit)
E:/uC-Soft/TI/TIRTOS/PDK_AM~1/packages/ti/starterware/binary/dal/lib/am335x-evm/a8/debug/gcc\libdal.a(dmtimer.o)
                              E:/uC-Soft/TI/TIRTOS/PDK_AM~1/packages/ti/starterware/binary/utils/lib/am335x-evm/a8/debug/gcc\libutils.a(dmtimer_utils.o) (DMTIMEREnable)
e:/uc-soft/ti/tirtos/gcc-arm-none-eabi-6-2017-q1-update/bin/../lib/gcc/arm-none-eabi/6.3.1/hard\libgcc.a(_udivsi3.o)
                              E:/uC-Soft/TI/TIRTOS/PDK_AM~1/packages/ti/starterware/binary/uart_app_echo/obj/am335x-evm/a8host/debug/gcc/uart_app.o (__aeabi_uidiv)
e:/uc-soft/ti/tirtos/gcc-arm-none-eabi-6-2017-q1-update/bin/../lib/gcc/arm-none-eabi/6.3.1/hard\libgcc.a(_divsi3.o)
                              (__aeabi_idiv)
e:/uc-soft/ti/tirtos/gcc-arm-none-eabi-6-2017-q1-update/bin/../lib/gcc/arm-none-eabi/6.3.1/hard\libgcc.a(_dvmd_tls.o)
                              e:/uc-soft/ti/tirtos/gcc-arm-none-eabi-6-2017-q1-update/bin/../lib/gcc/arm-none-eabi/6.3.1/hard\libgcc.a(_udivsi3.o) (__aeabi_idiv0)
e:/uc-soft/ti/tirtos/gcc-arm-none-eabi-6-2017-q1-update/bin/../lib/gcc/arm-none-eabi/6.3.1/hard\libgcc.a(_arm_addsubsf3.o)
                              E:/uC-Soft/TI/TIRTOS/PDK_AM~1/packages/ti/starterware/binary/utils/lib/am335x-evm/a8/debug/gcc\libutils.a(dmtimer_utils.o) (__aeabi_ul2f)
e:/uc-soft/ti/tirtos/gcc-arm-none-eabi-6-2017-q1-update/bin/../lib/gcc/arm-none-eabi/6.3.1/hard\libgcc.a(_aeabi_uldivmod.o)
                              E:/uC-Soft/TI/TIRTOS/PDK_AM~1/packages/ti/starterware/binary/utils/lib/am335x-evm/a8/debug/gcc\libutils.a(time_utils.o) (__aeabi_uldivmod)
e:/uc-soft/ti/tirtos/gcc-arm-none-eabi-6-2017-q1-update/bin/../lib/gcc/arm-none-eabi/6.3.1/hard\libgcc.a(_fixunssfdi.o)
                              E:/uC-Soft/TI/TIRTOS/PDK_AM~1/packages/ti/starterware/binary/utils/lib/am335x-evm/a8/debug/gcc\libutils.a(dmtimer_utils.o) (__aeabi_f2ulz)
e:/uc-soft/ti/tirtos/gcc-arm-none-eabi-6-2017-q1-update/bin/../lib/gcc/arm-none-eabi/6.3.1/hard\libgcc.a(_fixunsdfdi.o)
                              E:/uC-Soft/TI/TIRTOS/PDK_AM~1/packages/ti/starterware/binary/utils/lib/am335x-evm/a8/debug/gcc\libutils.a(console_utils_uart.o) (__aeabi_d2ulz)
e:/uc-soft/ti/tirtos/gcc-arm-none-eabi-6-2017-q1-update/bin/../lib/gcc/arm-none-eabi/6.3.1/hard\libgcc.a(_udivmoddi4.o)
                              e:/uc-soft/ti/tirtos/gcc-arm-none-eabi-6-2017-q1-update/bin/../lib/gcc/arm-none-eabi/6.3.1/hard\libgcc.a(_aeabi_uldivmod.o) (__udivmoddi4)
e:/uc-soft/ti/tirtos/gcc-arm-none-eabi-6-2017-q1-update/bin/../lib/gcc/arm-none-eabi/6.3.1/hard\libgcc.a(_clzdi2.o)
                              e:/uc-soft/ti/tirtos/gcc-arm-none-eabi-6-2017-q1-update/bin/../lib/gcc/arm-none-eabi/6.3.1/hard\libgcc.a(_udivmoddi4.o) (__clzdi2)
e:/uc-soft/ti/tirtos/gcc-arm-none-eabi-6-2017-q1-update/bin/../lib/gcc/arm-none-eabi/6.3.1/hard\libgcc.a(_clzsi2.o)
                              e:/uc-soft/ti/tirtos/gcc-arm-none-eabi-6-2017-q1-update/bin/../lib/gcc/arm-none-eabi/6.3.1/hard\libgcc.a(_clzdi2.o) (__clzsi2)
E:/uC-Soft/TI/TIRTOS/gcc-arm-none-eabi-6-2017-q1-update/arm-none-eabi/lib/hard\libc_nano.a(lib_a-exit.o)
                              e:/uc-soft/ti/tirtos/gcc-arm-none-eabi-6-2017-q1-update/bin/../lib/gcc/arm-none-eabi/6.3.1/../../../../arm-none-eabi/lib/hard/crt0.o (exit)
E:/uC-Soft/TI/TIRTOS/gcc-arm-none-eabi-6-2017-q1-update/arm-none-eabi/lib/hard\libc_nano.a(lib_a-impure.o)
                              E:/uC-Soft/TI/TIRTOS/gcc-arm-none-eabi-6-2017-q1-update/arm-none-eabi/lib/hard\libc_nano.a(lib_a-exit.o) (_global_impure_ptr)
E:/uC-Soft/TI/TIRTOS/gcc-arm-none-eabi-6-2017-q1-update/arm-none-eabi/lib/hard\libc_nano.a(lib_a-init.o)
                              e:/uc-soft/ti/tirtos/gcc-arm-none-eabi-6-2017-q1-update/bin/../lib/gcc/arm-none-eabi/6.3.1/../../../../arm-none-eabi/lib/hard/crt0.o (__libc_init_array)
E:/uC-Soft/TI/TIRTOS/gcc-arm-none-eabi-6-2017-q1-update/arm-none-eabi/lib/hard\libc_nano.a(lib_a-memcpy-stub.o)
                              E:/uC-Soft/TI/TIRTOS/PDK_AM~1/packages/ti/starterware/binary/uart_app_echo/obj/am335x-evm/a8host/debug/gcc/echo_app_main.o (memcpy)
E:/uC-Soft/TI/TIRTOS/gcc-arm-none-eabi-6-2017-q1-update/arm-none-eabi/lib/hard\libc_nano.a(lib_a-memset.o)
                              e:/uc-soft/ti/tirtos/gcc-arm-none-eabi-6-2017-q1-update/bin/../lib/gcc/arm-none-eabi/6.3.1/../../../../arm-none-eabi/lib/hard/crt0.o (memset)
E:/uC-Soft/TI/TIRTOS/gcc-arm-none-eabi-6-2017-q1-update/arm-none-eabi/lib/hard\libc_nano.a(lib_a-strncmp.o)
                              E:/uC-Soft/TI/TIRTOS/PDK_AM~1/packages/ti/starterware/binary/board/lib/am335x-evm/a8/debug/gcc\libboard.a(board_am335x.o) (strncmp)
E:/uC-Soft/TI/TIRTOS/gcc-arm-none-eabi-6-2017-q1-update/arm-none-eabi/lib/hard\librdimon_nano.a(rdimon-_exit.o)
                              E:/uC-Soft/TI/TIRTOS/gcc-arm-none-eabi-6-2017-q1-update/arm-none-eabi/lib/hard\libc_nano.a(lib_a-exit.o) (_exit)
E:/uC-Soft/TI/TIRTOS/gcc-arm-none-eabi-6-2017-q1-update/arm-none-eabi/lib/hard\librdimon_nano.a(rdimon-_kill.o)
                              E:/uC-Soft/TI/TIRTOS/gcc-arm-none-eabi-6-2017-q1-update/arm-none-eabi/lib/hard\librdimon_nano.a(rdimon-_exit.o) (_kill)

Allocating common symbols
Common symbol       size              file

gDCardAm335xLCD4EepromDataBoardName
                    0x15              E:/uC-Soft/TI/TIRTOS/PDK_AM~1/packages/ti/starterware/binary/board/lib/am335x-evm/a8/debug/gcc\libboard.a(am335x_lcd4_dcard.o)
gDataToSlave        0x2               E:/uC-Soft/TI/TIRTOS/PDK_AM~1/packages/ti/starterware/binary/board/lib/am335x-evm/a8/debug/gcc\libboard.a(am335x_gpevm.o)
gDCardAm335xLCD4EepromDataVersion
                    0x5               E:/uC-Soft/TI/TIRTOS/PDK_AM~1/packages/ti/starterware/binary/board/lib/am335x-evm/a8/debug/gcc\libboard.a(am335x_lcd4_dcard.o)
gDCardAm335xLCD4EepromDataHeader
                    0x5               E:/uC-Soft/TI/TIRTOS/PDK_AM~1/packages/ti/starterware/binary/board/lib/am335x-evm/a8/debug/gcc\libboard.a(am335x_lcd4_dcard.o)
pageTable           0x4000            E:/uC-Soft/TI/TIRTOS/PDK_AM~1/packages/ti/starterware/binary/examples/example_utils/lib/am335x-evm/a8/debug/gcc\libexample_utils.a(example_utils_mmu.o)
gDataFromSlave      0x2               E:/uC-Soft/TI/TIRTOS/PDK_AM~1/packages/ti/starterware/binary/board/lib/am335x-evm/a8/debug/gcc\libboard.a(am335x_gpevm.o)
gDCardAm335xLCD4EepromDataSerialNumber
                    0xd               E:/uC-Soft/TI/TIRTOS/PDK_AM~1/packages/ti/starterware/binary/board/lib/am335x-evm/a8/debug/gcc\libboard.a(am335x_lcd4_dcard.o)
gEdmaUtilsObj       0x0               E:/uC-Soft/TI/TIRTOS/PDK_AM~1/packages/ti/starterware/binary/examples/example_utils/lib/am335x-evm/a8/debug/gcc\libexample_utils.a(edma_utils.o)

Discarded input sections

 .text          0x00000000        0x0 e:/uc-soft/ti/tirtos/gcc-arm-none-eabi-6-2017-q1-update/bin/../lib/gcc/arm-none-eabi/6.3.1/hard/crti.o
 .data          0x00000000        0x0 e:/uc-soft/ti/tirtos/gcc-arm-none-eabi-6-2017-q1-update/bin/../lib/gcc/arm-none-eabi/6.3.1/hard/crti.o
 .bss           0x00000000        0x0 e:/uc-soft/ti/tirtos/gcc-arm-none-eabi-6-2017-q1-update/bin/../lib/gcc/arm-none-eabi/6.3.1/hard/crti.o
 .text          0x00000000       0xbc e:/uc-soft/ti/tirtos/gcc-arm-none-eabi-6-2017-q1-update/bin/../lib/gcc/arm-none-eabi/6.3.1/hard/crtbegin.o
 .data          0x00000000        0x4 e:/uc-soft/ti/tirtos/gcc-arm-none-eabi-6-2017-q1-update/bin/../lib/gcc/arm-none-eabi/6.3.1/hard/crtbegin.o
 .bss           0x00000000       0x1c e:/uc-soft/ti/tirtos/gcc-arm-none-eabi-6-2017-q1-update/bin/../lib/gcc/arm-none-eabi/6.3.1/hard/crtbegin.o
 .init_array    0x00000000        0x4 e:/uc-soft/ti/tirtos/gcc-arm-none-eabi-6-2017-q1-update/bin/../lib/gcc/arm-none-eabi/6.3.1/hard/crtbegin.o
 .fini_array    0x00000000        0x4 e:/uc-soft/ti/tirtos/gcc-arm-none-eabi-6-2017-q1-update/bin/../lib/gcc/arm-none-eabi/6.3.1/hard/crtbegin.o
 .eh_frame      0x00000000        0x0 e:/uc-soft/ti/tirtos/gcc-arm-none-eabi-6-2017-q1-update/bin/../lib/gcc/arm-none-eabi/6.3.1/hard/crtbegin.o
 .jcr           0x00000000        0x0 e:/uc-soft/ti/tirtos/gcc-arm-none-eabi-6-2017-q1-update/bin/../lib/gcc/arm-none-eabi/6.3.1/hard/crtbegin.o
 .ARM.attributes
                0x00000000       0x34 e:/uc-soft/ti/tirtos/gcc-arm-none-eabi-6-2017-q1-update/bin/../lib/gcc/arm-none-eabi/6.3.1/hard/crtbegin.o
 .text          0x00000000      0x114 e:/uc-soft/ti/tirtos/gcc-arm-none-eabi-6-2017-q1-update/bin/../lib/gcc/arm-none-eabi/6.3.1/../../../../arm-none-eabi/lib/hard/crt0.o
 .data          0x00000000        0x0 e:/uc-soft/ti/tirtos/gcc-arm-none-eabi-6-2017-q1-update/bin/../lib/gcc/arm-none-eabi/6.3.1/../../../../arm-none-eabi/lib/hard/crt0.o
 .bss           0x00000000        0x0 e:/uc-soft/ti/tirtos/gcc-arm-none-eabi-6-2017-q1-update/bin/../lib/gcc/arm-none-eabi/6.3.1/../../../../arm-none-eabi/lib/hard/crt0.o
 .ARM.extab     0x00000000        0x0 e:/uc-soft/ti/tirtos/gcc-arm-none-eabi-6-2017-q1-update/bin/../lib/gcc/arm-none-eabi/6.3.1/../../../../arm-none-eabi/lib/hard/crt0.o
 .ARM.exidx     0x00000000        0x8 e:/uc-soft/ti/tirtos/gcc-arm-none-eabi-6-2017-q1-update/bin/../lib/gcc/arm-none-eabi/6.3.1/../../../../arm-none-eabi/lib/hard/crt0.o
 .ARM.attributes
                0x00000000       0x14 e:/uc-soft/ti/tirtos/gcc-arm-none-eabi-6-2017-q1-update/bin/../lib/gcc/arm-none-eabi/6.3.1/../../../../arm-none-eabi/lib/hard/crt0.o
 .text          0x00000000        0x0 E:/uC-Soft/TI/TIRTOS/PDK_AM~1/packages/ti/starterware/binary/uart_app_echo/obj/am335x-evm/a8host/debug/gcc/uart_app.o
 .data          0x00000000        0x0 E:/uC-Soft/TI/TIRTOS/PDK_AM~1/packages/ti/starterware/binary/uart_app_echo/obj/am335x-evm/a8host/debug/gcc/uart_app.o
 .bss           0x00000000        0x0 E:/uC-Soft/TI/TIRTOS/PDK_AM~1/packages/ti/starterware/binary/uart_app_echo/obj/am335x-evm/a8host/debug/gcc/uart_app.o
 .rodata        0x00000000       0x38 E:/uC-Soft/TI/TIRTOS/PDK_AM~1/packages/ti/starterware/binary/uart_app_echo/obj/am335x-evm/a8host/debug/gcc/uart_app.o
 .text.UARTAppDmaRxSetup
                0x00000000      0x250 E:/uC-Soft/TI/TIRTOS/PDK_AM~1/packages/ti/starterware/binary/uart_app_echo/obj/am335x-evm/a8host/debug/gcc/uart_app.o
 .text.UARTAppDmaTxSetup
                0x00000000      0x250 E:/uC-Soft/TI/TIRTOS/PDK_AM~1/packages/ti/starterware/binary/uart_app_echo/obj/am335x-evm/a8host/debug/gcc/uart_app.o
 .text.UARTAppDmaXferStart
                0x00000000       0xd4 E:/uC-Soft/TI/TIRTOS/PDK_AM~1/packages/ti/starterware/binary/uart_app_echo/obj/am335x-evm/a8host/debug/gcc/uart_app.o
 .text.UARTAppDmaXferStop
                0x00000000       0xd8 E:/uC-Soft/TI/TIRTOS/PDK_AM~1/packages/ti/starterware/binary/uart_app_echo/obj/am335x-evm/a8host/debug/gcc/uart_app.o
 .text          0x00000000        0x0 E:/uC-Soft/TI/TIRTOS/PDK_AM~1/packages/ti/starterware/binary/uart_app_echo/obj/am335x-evm/a8host/debug/gcc/echo_app_main.o
 .data          0x00000000        0x0 E:/uC-Soft/TI/TIRTOS/PDK_AM~1/packages/ti/starterware/binary/uart_app_echo/obj/am335x-evm/a8host/debug/gcc/echo_app_main.o
 .bss           0x00000000        0x0 E:/uC-Soft/TI/TIRTOS/PDK_AM~1/packages/ti/starterware/binary/uart_app_echo/obj/am335x-evm/a8host/debug/gcc/echo_app_main.o
 .text.UartAppDmaCallBack
                0x00000000       0x80 E:/uC-Soft/TI/TIRTOS/PDK_AM~1/packages/ti/starterware/binary/uart_app_echo/obj/am335x-evm/a8host/debug/gcc/echo_app_main.o
 .text          0x00000000        0x0 E:/uC-Soft/TI/TIRTOS/PDK_AM~1/packages/ti/starterware/binary/examples/example_utils/lib/am335x-evm/a8/debug/gcc\libexample_utils.a(example_utils_mmu.o)
 .data          0x00000000        0x0 E:/uC-Soft/TI/TIRTOS/PDK_AM~1/packages/ti/starterware/binary/examples/example_utils/lib/am335x-evm/a8/debug/gcc\libexample_utils.a(example_utils_mmu.o)
 .bss           0x00000000        0x0 E:/uC-Soft/TI/TIRTOS/PDK_AM~1/packages/ti/starterware/binary/examples/example_utils/lib/am335x-evm/a8/debug/gcc\libexample_utils.a(example_utils_mmu.o)
 .text          0x00000000        0x0 E:/uC-Soft/TI/TIRTOS/PDK_AM~1/packages/ti/starterware/binary/examples/example_utils/lib/am335x-evm/a8/debug/gcc\libexample_utils.a(dma_utils.o)
 .data          0x00000000        0x0 E:/uC-Soft/TI/TIRTOS/PDK_AM~1/packages/ti/starterware/binary/examples/example_utils/lib/am335x-evm/a8/debug/gcc\libexample_utils.a(dma_utils.o)
 .bss           0x00000000        0x0 E:/uC-Soft/TI/TIRTOS/PDK_AM~1/packages/ti/starterware/binary/examples/example_utils/lib/am335x-evm/a8/debug/gcc\libexample_utils.a(dma_utils.o)
 .rodata.DMA_UTILS_DATA_DEFAULT
                0x00000000       0x24 E:/uC-Soft/TI/TIRTOS/PDK_AM~1/packages/ti/starterware/binary/examples/example_utils/lib/am335x-evm/a8/debug/gcc\libexample_utils.a(dma_utils.o)
 .rodata.DMA_UTILS_XFER_DEFAULT
                0x00000000       0x14 E:/uC-Soft/TI/TIRTOS/PDK_AM~1/packages/ti/starterware/binary/examples/example_utils/lib/am335x-evm/a8/debug/gcc\libexample_utils.a(dma_utils.o)
 .rodata.DMA_UTILS_CH_DEFAULT
                0x00000000       0x14 E:/uC-Soft/TI/TIRTOS/PDK_AM~1/packages/ti/starterware/binary/examples/example_utils/lib/am335x-evm/a8/debug/gcc\libexample_utils.a(dma_utils.o)
 .bss.gDMAUtilsMemCopyStatus
                0x00000000        0x4 E:/uC-Soft/TI/TIRTOS/PDK_AM~1/packages/ti/starterware/binary/examples/example_utils/lib/am335x-evm/a8/debug/gcc\libexample_utils.a(dma_utils.o)
 .text.DMAUtilsInit
                0x00000000       0x5c E:/uC-Soft/TI/TIRTOS/PDK_AM~1/packages/ti/starterware/binary/examples/example_utils/lib/am335x-evm/a8/debug/gcc\libexample_utils.a(dma_utils.o)
 .text.DMAUtilsReset
                0x00000000       0x54 E:/uC-Soft/TI/TIRTOS/PDK_AM~1/packages/ti/starterware/binary/examples/example_utils/lib/am335x-evm/a8/debug/gcc\libexample_utils.a(dma_utils.o)
 .text.DMAUtilsDataXferConfig
                0x00000000       0x64 E:/uC-Soft/TI/TIRTOS/PDK_AM~1/packages/ti/starterware/binary/examples/example_utils/lib/am335x-evm/a8/debug/gcc\libexample_utils.a(dma_utils.o)
 .text.DMAUtilsDataXferReset
                0x00000000       0x5c E:/uC-Soft/TI/TIRTOS/PDK_AM~1/packages/ti/starterware/binary/examples/example_utils/lib/am335x-evm/a8/debug/gcc\libexample_utils.a(dma_utils.o)
 .text.DMAUtilsChConfig
                0x00000000       0x64 E:/uC-Soft/TI/TIRTOS/PDK_AM~1/packages/ti/starterware/binary/examples/example_utils/lib/am335x-evm/a8/debug/gcc\libexample_utils.a(dma_utils.o)
 .text.DMAUtilsXferStart
                0x00000000       0x64 E:/uC-Soft/TI/TIRTOS/PDK_AM~1/packages/ti/starterware/binary/examples/example_utils/lib/am335x-evm/a8/debug/gcc\libexample_utils.a(dma_utils.o)
 .text.DMAUtilsXferStop
                0x00000000       0x64 E:/uC-Soft/TI/TIRTOS/PDK_AM~1/packages/ti/starterware/binary/examples/example_utils/lib/am335x-evm/a8/debug/gcc\libexample_utils.a(dma_utils.o)
 .text.DMAUtilsMemCopy
                0x00000000      0x264 E:/uC-Soft/TI/TIRTOS/PDK_AM~1/packages/ti/starterware/binary/examples/example_utils/lib/am335x-evm/a8/debug/gcc\libexample_utils.a(dma_utils.o)
 .text.DMAUtilsMemCopyStatus
                0x00000000       0x24 E:/uC-Soft/TI/TIRTOS/PDK_AM~1/packages/ti/starterware/binary/examples/example_utils/lib/am335x-evm/a8/debug/gcc\libexample_utils.a(dma_utils.o)
 .text.DMAUtilsMemCopyCallBack
                0x00000000       0x34 E:/uC-Soft/TI/TIRTOS/PDK_AM~1/packages/ti/starterware/binary/examples/example_utils/lib/am335x-evm/a8/debug/gcc\libexample_utils.a(dma_utils.o)
 .debug_info    0x00000000      0xfe1 E:/uC-Soft/TI/TIRTOS/PDK_AM~1/packages/ti/starterware/binary/examples/example_utils/lib/am335x-evm/a8/debug/gcc\libexample_utils.a(dma_utils.o)
 .debug_abbrev  0x00000000      0x23c E:/uC-Soft/TI/TIRTOS/PDK_AM~1/packages/ti/starterware/binary/examples/example_utils/lib/am335x-evm/a8/debug/gcc\libexample_utils.a(dma_utils.o)
 .debug_aranges
                0x00000000       0x68 E:/uC-Soft/TI/TIRTOS/PDK_AM~1/packages/ti/starterware/binary/examples/example_utils/lib/am335x-evm/a8/debug/gcc\libexample_utils.a(dma_utils.o)
 .debug_ranges  0x00000000       0x58 E:/uC-Soft/TI/TIRTOS/PDK_AM~1/packages/ti/starterware/binary/examples/example_utils/lib/am335x-evm/a8/debug/gcc\libexample_utils.a(dma_utils.o)
 .debug_line    0x00000000      0x2f1 E:/uC-Soft/TI/TIRTOS/PDK_AM~1/packages/ti/starterware/binary/examples/example_utils/lib/am335x-evm/a8/debug/gcc\libexample_utils.a(dma_utils.o)
 .debug_str     0x00000000      0xca4 E:/uC-Soft/TI/TIRTOS/PDK_AM~1/packages/ti/starterware/binary/examples/example_utils/lib/am335x-evm/a8/debug/gcc\libexample_utils.a(dma_utils.o)
 .comment       0x00000000       0x80 E:/uC-Soft/TI/TIRTOS/PDK_AM~1/packages/ti/starterware/binary/examples/example_utils/lib/am335x-evm/a8/debug/gcc\libexample_utils.a(dma_utils.o)
 .debug_frame   0x00000000      0x154 E:/uC-Soft/TI/TIRTOS/PDK_AM~1/packages/ti/starterware/binary/examples/example_utils/lib/am335x-evm/a8/debug/gcc\libexample_utils.a(dma_utils.o)
 .ARM.attributes
                0x00000000       0x3d E:/uC-Soft/TI/TIRTOS/PDK_AM~1/packages/ti/starterware/binary/examples/example_utils/lib/am335x-evm/a8/debug/gcc\libexample_utils.a(dma_utils.o)
 .text          0x00000000        0x0 E:/uC-Soft/TI/TIRTOS/PDK_AM~1/packages/ti/starterware/binary/examples/example_utils/lib/am335x-evm/a8/debug/gcc\libexample_utils.a(edma_utils.o)
 .data          0x00000000        0x0 E:/uC-Soft/TI/TIRTOS/PDK_AM~1/packages/ti/starterware/binary/examples/example_utils/lib/am335x-evm/a8/debug/gcc\libexample_utils.a(edma_utils.o)
 .bss           0x00000000        0x0 E:/uC-Soft/TI/TIRTOS/PDK_AM~1/packages/ti/starterware/binary/examples/example_utils/lib/am335x-evm/a8/debug/gcc\libexample_utils.a(edma_utils.o)
 .rodata.EDMA_DATA_DEFAULT
                0x00000000       0x28 E:/uC-Soft/TI/TIRTOS/PDK_AM~1/packages/ti/starterware/binary/examples/example_utils/lib/am335x-evm/a8/debug/gcc\libexample_utils.a(edma_utils.o)
 .rodata.EDMA_XFER_DEFAULT
                0x00000000       0x30 E:/uC-Soft/TI/TIRTOS/PDK_AM~1/packages/ti/starterware/binary/examples/example_utils/lib/am335x-evm/a8/debug/gcc\libexample_utils.a(edma_utils.o)
 .rodata.EDMA_CH_DEFAULT
                0x00000000       0x10 E:/uC-Soft/TI/TIRTOS/PDK_AM~1/packages/ti/starterware/binary/examples/example_utils/lib/am335x-evm/a8/debug/gcc\libexample_utils.a(edma_utils.o)
 .rodata        0x00000000      0x13b E:/uC-Soft/TI/TIRTOS/PDK_AM~1/packages/ti/starterware/binary/examples/example_utils/lib/am335x-evm/a8/debug/gcc\libexample_utils.a(edma_utils.o)
 .text.EDMAUtilsInit
                0x00000000       0xbc E:/uC-Soft/TI/TIRTOS/PDK_AM~1/packages/ti/starterware/binary/examples/example_utils/lib/am335x-evm/a8/debug/gcc\libexample_utils.a(edma_utils.o)
 .text.EDMAUtilsReset
                0x00000000       0x68 E:/uC-Soft/TI/TIRTOS/PDK_AM~1/packages/ti/starterware/binary/examples/example_utils/lib/am335x-evm/a8/debug/gcc\libexample_utils.a(edma_utils.o)
 .text.EDMAUtilsDataXferReset
                0x00000000       0x64 E:/uC-Soft/TI/TIRTOS/PDK_AM~1/packages/ti/starterware/binary/examples/example_utils/lib/am335x-evm/a8/debug/gcc\libexample_utils.a(edma_utils.o)
 .text.EDMAUtilsDataXferConfig
                0x00000000      0x4f4 E:/uC-Soft/TI/TIRTOS/PDK_AM~1/packages/ti/starterware/binary/examples/example_utils/lib/am335x-evm/a8/debug/gcc\libexample_utils.a(edma_utils.o)
 .text.EDMAUtilsChConfig
                0x00000000      0x2e4 E:/uC-Soft/TI/TIRTOS/PDK_AM~1/packages/ti/starterware/binary/examples/example_utils/lib/am335x-evm/a8/debug/gcc\libexample_utils.a(edma_utils.o)
 .text.EDMAUtilsXferStart
                0x00000000       0x74 E:/uC-Soft/TI/TIRTOS/PDK_AM~1/packages/ti/starterware/binary/examples/example_utils/lib/am335x-evm/a8/debug/gcc\libexample_utils.a(edma_utils.o)
 .text.EDMAUtilsXferStop
                0x00000000       0x74 E:/uC-Soft/TI/TIRTOS/PDK_AM~1/packages/ti/starterware/binary/examples/example_utils/lib/am335x-evm/a8/debug/gcc\libexample_utils.a(edma_utils.o)
 .text.EdmaUtilsGetSocInfo
                0x00000000       0xb4 E:/uC-Soft/TI/TIRTOS/PDK_AM~1/packages/ti/starterware/binary/examples/example_utils/lib/am335x-evm/a8/debug/gcc\libexample_utils.a(edma_utils.o)
 .text.EDMAUtilsModuleInit
                0x00000000       0x98 E:/uC-Soft/TI/TIRTOS/PDK_AM~1/packages/ti/starterware/binary/examples/example_utils/lib/am335x-evm/a8/debug/gcc\libexample_utils.a(edma_utils.o)
 .text.EDMAUtilsIntcConfigure
                0x00000000      0x190 E:/uC-Soft/TI/TIRTOS/PDK_AM~1/packages/ti/starterware/binary/examples/example_utils/lib/am335x-evm/a8/debug/gcc\libexample_utils.a(edma_utils.o)
 .text.EDMAUtilsCtrlInit
                0x00000000       0x78 E:/uC-Soft/TI/TIRTOS/PDK_AM~1/packages/ti/starterware/binary/examples/example_utils/lib/am335x-evm/a8/debug/gcc\libexample_utils.a(edma_utils.o)
 .text.EdmaChCompletionIsr
                0x00000000      0x2ac E:/uC-Soft/TI/TIRTOS/PDK_AM~1/packages/ti/starterware/binary/examples/example_utils/lib/am335x-evm/a8/debug/gcc\libexample_utils.a(edma_utils.o)
 .text.EdmaChErrorIsr
                0x00000000      0x414 E:/uC-Soft/TI/TIRTOS/PDK_AM~1/packages/ti/starterware/binary/examples/example_utils/lib/am335x-evm/a8/debug/gcc\libexample_utils.a(edma_utils.o)
 .debug_info    0x00000000     0x1bf3 E:/uC-Soft/TI/TIRTOS/PDK_AM~1/packages/ti/starterware/binary/examples/example_utils/lib/am335x-evm/a8/debug/gcc\libexample_utils.a(edma_utils.o)
 .debug_abbrev  0x00000000      0x2a4 E:/uC-Soft/TI/TIRTOS/PDK_AM~1/packages/ti/starterware/binary/examples/example_utils/lib/am335x-evm/a8/debug/gcc\libexample_utils.a(edma_utils.o)
 .debug_aranges
                0x00000000       0x80 E:/uC-Soft/TI/TIRTOS/PDK_AM~1/packages/ti/starterware/binary/examples/example_utils/lib/am335x-evm/a8/debug/gcc\libexample_utils.a(edma_utils.o)
 .debug_ranges  0x00000000       0x70 E:/uC-Soft/TI/TIRTOS/PDK_AM~1/packages/ti/starterware/binary/examples/example_utils/lib/am335x-evm/a8/debug/gcc\libexample_utils.a(edma_utils.o)
 .debug_line    0x00000000      0x56d E:/uC-Soft/TI/TIRTOS/PDK_AM~1/packages/ti/starterware/binary/examples/example_utils/lib/am335x-evm/a8/debug/gcc\libexample_utils.a(edma_utils.o)
 .debug_str     0x00000000     0x21b9 E:/uC-Soft/TI/TIRTOS/PDK_AM~1/packages/ti/starterware/binary/examples/example_utils/lib/am335x-evm/a8/debug/gcc\libexample_utils.a(edma_utils.o)
 .comment       0x00000000       0x80 E:/uC-Soft/TI/TIRTOS/PDK_AM~1/packages/ti/starterware/binary/examples/example_utils/lib/am335x-evm/a8/debug/gcc\libexample_utils.a(edma_utils.o)
 .debug_frame   0x00000000      0x1c8 E:/uC-Soft/TI/TIRTOS/PDK_AM~1/packages/ti/starterware/binary/examples/example_utils/lib/am335x-evm/a8/debug/gcc\libexample_utils.a(edma_utils.o)
 .ARM.attributes
                0x00000000       0x3d E:/uC-Soft/TI/TIRTOS/PDK_AM~1/packages/ti/starterware/binary/examples/example_utils/lib/am335x-evm/a8/debug/gcc\libexample_utils.a(edma_utils.o)
 COMMON         0x00000000        0x0 E:/uC-Soft/TI/TIRTOS/PDK_AM~1/packages/ti/starterware/binary/examples/example_utils/lib/am335x-evm/a8/debug/gcc\libexample_utils.a(edma_utils.o)
 .text          0x00000000        0x0 E:/uC-Soft/TI/TIRTOS/PDK_AM~1/packages/ti/starterware/binary/board/lib/am335x-evm/a8/debug/gcc\libboard.a(board.o)
 .data          0x00000000        0x0 E:/uC-Soft/TI/TIRTOS/PDK_AM~1/packages/ti/starterware/binary/board/lib/am335x-evm/a8/debug/gcc\libboard.a(board.o)
 .bss           0x00000000        0x0 E:/uC-Soft/TI/TIRTOS/PDK_AM~1/packages/ti/starterware/binary/board/lib/am335x-evm/a8/debug/gcc\libboard.a(board.o)
 .data.gBoardIdStrTable
                0x00000000       0x58 E:/uC-Soft/TI/TIRTOS/PDK_AM~1/packages/ti/starterware/binary/board/lib/am335x-evm/a8/debug/gcc\libboard.a(board.o)
 .text.BOARDDeInit
                0x00000000       0x2c E:/uC-Soft/TI/TIRTOS/PDK_AM~1/packages/ti/starterware/binary/board/lib/am335x-evm/a8/debug/gcc\libboard.a(board.o)
 .text.BOARDGetId
                0x00000000       0x90 E:/uC-Soft/TI/TIRTOS/PDK_AM~1/packages/ti/starterware/binary/board/lib/am335x-evm/a8/debug/gcc\libboard.a(board.o)
 .text.BOARDGetBoardName
                0x00000000       0xac E:/uC-Soft/TI/TIRTOS/PDK_AM~1/packages/ti/starterware/binary/board/lib/am335x-evm/a8/debug/gcc\libboard.a(board.o)
 .text.BOARDGetBaseBoardRev
                0x00000000       0x8c E:/uC-Soft/TI/TIRTOS/PDK_AM~1/packages/ti/starterware/binary/board/lib/am335x-evm/a8/debug/gcc\libboard.a(board.o)
 .text.BOARDGetBaseBoardRevName
                0x00000000       0x54 E:/uC-Soft/TI/TIRTOS/PDK_AM~1/packages/ti/starterware/binary/board/lib/am335x-evm/a8/debug/gcc\libboard.a(board.o)
 .text.BOARDGetDcRev
                0x00000000       0x60 E:/uC-Soft/TI/TIRTOS/PDK_AM~1/packages/ti/starterware/binary/board/lib/am335x-evm/a8/debug/gcc\libboard.a(board.o)
 .text.BOARDGetDcRevName
                0x00000000       0x54 E:/uC-Soft/TI/TIRTOS/PDK_AM~1/packages/ti/starterware/binary/board/lib/am335x-evm/a8/debug/gcc\libboard.a(board.o)
 .text.BOARDGetI2cData
                0x00000000       0x54 E:/uC-Soft/TI/TIRTOS/PDK_AM~1/packages/ti/starterware/binary/board/lib/am335x-evm/a8/debug/gcc\libboard.a(board.o)
 .text.BOARDIsDevicePresent
                0x00000000      0x148 E:/uC-Soft/TI/TIRTOS/PDK_AM~1/packages/ti/starterware/binary/board/lib/am335x-evm/a8/debug/gcc\libboard.a(board.o)
 .text.BOARDGetNumDevices
                0x00000000       0xa0 E:/uC-Soft/TI/TIRTOS/PDK_AM~1/packages/ti/starterware/binary/board/lib/am335x-evm/a8/debug/gcc\libboard.a(board.o)
 .text.BOARDGetDeviceCtrlModId
                0x00000000      0x198 E:/uC-Soft/TI/TIRTOS/PDK_AM~1/packages/ti/starterware/binary/board/lib/am335x-evm/a8/debug/gcc\libboard.a(board.o)
 .text.BOARDGetDeviceCtrlInfo
                0x00000000       0xbc E:/uC-Soft/TI/TIRTOS/PDK_AM~1/packages/ti/starterware/binary/board/lib/am335x-evm/a8/debug/gcc\libboard.a(board.o)
 .text.BOARDGetDeviceDataModId
                0x00000000       0xbc E:/uC-Soft/TI/TIRTOS/PDK_AM~1/packages/ti/starterware/binary/board/lib/am335x-evm/a8/debug/gcc\libboard.a(board.o)
 .text.BOARDGetDeviceDataModInstNum
                0x00000000       0xbc E:/uC-Soft/TI/TIRTOS/PDK_AM~1/packages/ti/starterware/binary/board/lib/am335x-evm/a8/debug/gcc\libboard.a(board.o)
 .text.BOARDPowerOnDevice
                0x00000000      0x154 E:/uC-Soft/TI/TIRTOS/PDK_AM~1/packages/ti/starterware/binary/board/lib/am335x-evm/a8/debug/gcc\libboard.a(board.o)
 .text.BOARDSelectDevice
                0x00000000      0x100 E:/uC-Soft/TI/TIRTOS/PDK_AM~1/packages/ti/starterware/binary/board/lib/am335x-evm/a8/debug/gcc\libboard.a(board.o)
 .text.BOARDResetDevice
                0x00000000      0x100 E:/uC-Soft/TI/TIRTOS/PDK_AM~1/packages/ti/starterware/binary/board/lib/am335x-evm/a8/debug/gcc\libboard.a(board.o)
 .text.BOARDPrintInfo
                0x00000000       0x88 E:/uC-Soft/TI/TIRTOS/PDK_AM~1/packages/ti/starterware/binary/board/lib/am335x-evm/a8/debug/gcc\libboard.a(board.o)
 .text.BOARDGetDCardsData
                0x00000000       0x68 E:/uC-Soft/TI/TIRTOS/PDK_AM~1/packages/ti/starterware/binary/board/lib/am335x-evm/a8/debug/gcc\libboard.a(board.o)
 .text.BOARDIsDCardPresent
                0x00000000       0x68 E:/uC-Soft/TI/TIRTOS/PDK_AM~1/packages/ti/starterware/binary/board/lib/am335x-evm/a8/debug/gcc\libboard.a(board.o)
 .text.BOARDGetLcdDevData
                0x00000000       0x74 E:/uC-Soft/TI/TIRTOS/PDK_AM~1/packages/ti/starterware/binary/board/lib/am335x-evm/a8/debug/gcc\libboard.a(board.o)
 .text.BoardPowerOnDCardDevice
                0x00000000       0x8c E:/uC-Soft/TI/TIRTOS/PDK_AM~1/packages/ti/starterware/binary/board/lib/am335x-evm/a8/debug/gcc\libboard.a(board.o)
 .text          0x00000000        0x0 E:/uC-Soft/TI/TIRTOS/PDK_AM~1/packages/ti/starterware/binary/board/lib/am335x-evm/a8/debug/gcc\libboard.a(dcard.o)
 .data          0x00000000        0x0 E:/uC-Soft/TI/TIRTOS/PDK_AM~1/packages/ti/starterware/binary/board/lib/am335x-evm/a8/debug/gcc\libboard.a(dcard.o)
 .bss           0x00000000        0x0 E:/uC-Soft/TI/TIRTOS/PDK_AM~1/packages/ti/starterware/binary/board/lib/am335x-evm/a8/debug/gcc\libboard.a(dcard.o)
 .text.DCARDInit
                0x00000000       0x44 E:/uC-Soft/TI/TIRTOS/PDK_AM~1/packages/ti/starterware/binary/board/lib/am335x-evm/a8/debug/gcc\libboard.a(dcard.o)
 .text.DCARDIsDevPresent
                0x00000000       0xb4 E:/uC-Soft/TI/TIRTOS/PDK_AM~1/packages/ti/starterware/binary/board/lib/am335x-evm/a8/debug/gcc\libboard.a(dcard.o)
 .text.DCARDGetDevDCardId
                0x00000000       0x98 E:/uC-Soft/TI/TIRTOS/PDK_AM~1/packages/ti/starterware/binary/board/lib/am335x-evm/a8/debug/gcc\libboard.a(dcard.o)
 .rodata        0x00000000       0x15 E:/uC-Soft/TI/TIRTOS/PDK_AM~1/packages/ti/starterware/binary/board/lib/am335x-evm/a8/debug/gcc\libboard.a(dcard.o)
 .text.DCARDGetDeviceCtrlModId
                0x00000000       0xe4 E:/uC-Soft/TI/TIRTOS/PDK_AM~1/packages/ti/starterware/binary/board/lib/am335x-evm/a8/debug/gcc\libboard.a(dcard.o)
 .text          0x00000000        0x0 E:/uC-Soft/TI/TIRTOS/PDK_AM~1/packages/ti/starterware/binary/board/lib/am335x-evm/a8/debug/gcc\libboard.a(platform.o)
 .data          0x00000000        0x0 E:/uC-Soft/TI/TIRTOS/PDK_AM~1/packages/ti/starterware/binary/board/lib/am335x-evm/a8/debug/gcc\libboard.a(platform.o)
 .bss           0x00000000        0x0 E:/uC-Soft/TI/TIRTOS/PDK_AM~1/packages/ti/starterware/binary/board/lib/am335x-evm/a8/debug/gcc\libboard.a(platform.o)
 .rodata        0x00000000       0x40 E:/uC-Soft/TI/TIRTOS/PDK_AM~1/packages/ti/starterware/binary/board/lib/am335x-evm/a8/debug/gcc\libboard.a(platform.o)
 .data.gPlatformIdStrTable
                0x00000000       0x28 E:/uC-Soft/TI/TIRTOS/PDK_AM~1/packages/ti/starterware/binary/board/lib/am335x-evm/a8/debug/gcc\libboard.a(platform.o)
 .text.PLATFORMGetString
                0x00000000       0xb8 E:/uC-Soft/TI/TIRTOS/PDK_AM~1/packages/ti/starterware/binary/board/lib/am335x-evm/a8/debug/gcc\libboard.a(platform.o)
 .text.PLATFORMPrintInfo
                0x00000000       0x38 E:/uC-Soft/TI/TIRTOS/PDK_AM~1/packages/ti/starterware/binary/board/lib/am335x-evm/a8/debug/gcc\libboard.a(platform.o)
 .text          0x00000000        0x0 E:/uC-Soft/TI/TIRTOS/PDK_AM~1/packages/ti/starterware/binary/board/lib/am335x-evm/a8/debug/gcc\libboard.a(pinmux.o)
 .data          0x00000000        0x0 E:/uC-Soft/TI/TIRTOS/PDK_AM~1/packages/ti/starterware/binary/board/lib/am335x-evm/a8/debug/gcc\libboard.a(pinmux.o)
 .bss           0x00000000        0x0 E:/uC-Soft/TI/TIRTOS/PDK_AM~1/packages/ti/starterware/binary/board/lib/am335x-evm/a8/debug/gcc\libboard.a(pinmux.o)
 .text          0x00000000        0x0 E:/uC-Soft/TI/TIRTOS/PDK_AM~1/packages/ti/starterware/binary/board/lib/am335x-evm/a8/debug/gcc\libboard.a(board_am335x.o)
 .data          0x00000000        0x0 E:/uC-Soft/TI/TIRTOS/PDK_AM~1/packages/ti/starterware/binary/board/lib/am335x-evm/a8/debug/gcc\libboard.a(board_am335x.o)
 .bss           0x00000000        0x0 E:/uC-Soft/TI/TIRTOS/PDK_AM~1/packages/ti/starterware/binary/board/lib/am335x-evm/a8/debug/gcc\libboard.a(board_am335x.o)
 .text.BoardGetBaseBoardRevAm335x
                0x00000000      0x110 E:/uC-Soft/TI/TIRTOS/PDK_AM~1/packages/ti/starterware/binary/board/lib/am335x-evm/a8/debug/gcc\libboard.a(board_am335x.o)
 .text.BoardGetBaseBoardRevNameAm335x
                0x00000000       0x68 E:/uC-Soft/TI/TIRTOS/PDK_AM~1/packages/ti/starterware/binary/board/lib/am335x-evm/a8/debug/gcc\libboard.a(board_am335x.o)
 .text.BoardGetDcRevAm335x
                0x00000000       0x68 E:/uC-Soft/TI/TIRTOS/PDK_AM~1/packages/ti/starterware/binary/board/lib/am335x-evm/a8/debug/gcc\libboard.a(board_am335x.o)
 .text.BoardGetDcRevNameAm335x
                0x00000000       0x70 E:/uC-Soft/TI/TIRTOS/PDK_AM~1/packages/ti/starterware/binary/board/lib/am335x-evm/a8/debug/gcc\libboard.a(board_am335x.o)
 .text          0x00000000        0x0 E:/uC-Soft/TI/TIRTOS/PDK_AM~1/packages/ti/starterware/binary/board/lib/am335x-evm/a8/debug/gcc\libboard.a(dcard_am335x.o)
 .data          0x00000000        0x0 E:/uC-Soft/TI/TIRTOS/PDK_AM~1/packages/ti/starterware/binary/board/lib/am335x-evm/a8/debug/gcc\libboard.a(dcard_am335x.o)
 .bss           0x00000000        0x0 E:/uC-Soft/TI/TIRTOS/PDK_AM~1/packages/ti/starterware/binary/board/lib/am335x-evm/a8/debug/gcc\libboard.a(dcard_am335x.o)
 .rodata        0x00000000       0xe6 E:/uC-Soft/TI/TIRTOS/PDK_AM~1/packages/ti/starterware/binary/board/lib/am335x-evm/a8/debug/gcc\libboard.a(dcard_am335x.o)
 .text.DCardAm335xInit
                0x00000000      0x2a0 E:/uC-Soft/TI/TIRTOS/PDK_AM~1/packages/ti/starterware/binary/board/lib/am335x-evm/a8/debug/gcc\libboard.a(dcard_am335x.o)
 .text.DCardAm335xPrintEepromData
                0x00000000      0x14c E:/uC-Soft/TI/TIRTOS/PDK_AM~1/packages/ti/starterware/binary/board/lib/am335x-evm/a8/debug/gcc\libboard.a(dcard_am335x.o)
 .text.DCardAm335xGetI2cSlaveAddr
                0x00000000      0x1bc E:/uC-Soft/TI/TIRTOS/PDK_AM~1/packages/ti/starterware/binary/board/lib/am335x-evm/a8/debug/gcc\libboard.a(dcard_am335x.o)
 .text.DCardAm335xLinkDCard
                0x00000000       0x7c E:/uC-Soft/TI/TIRTOS/PDK_AM~1/packages/ti/starterware/binary/board/lib/am335x-evm/a8/debug/gcc\libboard.a(dcard_am335x.o)
 .text          0x00000000        0x0 E:/uC-Soft/TI/TIRTOS/PDK_AM~1/packages/ti/starterware/binary/board/lib/am335x-evm/a8/debug/gcc\libboard.a(am335x_gpevm.o)
 .data          0x00000000        0x0 E:/uC-Soft/TI/TIRTOS/PDK_AM~1/packages/ti/starterware/binary/board/lib/am335x-evm/a8/debug/gcc\libboard.a(am335x_gpevm.o)
 .bss           0x00000000        0x0 E:/uC-Soft/TI/TIRTOS/PDK_AM~1/packages/ti/starterware/binary/board/lib/am335x-evm/a8/debug/gcc\libboard.a(am335x_gpevm.o)
 .rodata.gBoardAm335xGpevmLcdDevData
                0x00000000        0x8 E:/uC-Soft/TI/TIRTOS/PDK_AM~1/packages/ti/starterware/binary/board/lib/am335x-evm/a8/debug/gcc\libboard.a(am335x_gpevm.o)
 .text          0x00000000        0x0 E:/uC-Soft/TI/TIRTOS/PDK_AM~1/packages/ti/starterware/binary/board/lib/am335x-evm/a8/debug/gcc\libboard.a(am335x_evmsk.o)
 .data          0x00000000        0x0 E:/uC-Soft/TI/TIRTOS/PDK_AM~1/packages/ti/starterware/binary/board/lib/am335x-evm/a8/debug/gcc\libboard.a(am335x_evmsk.o)
 .bss           0x00000000        0x0 E:/uC-Soft/TI/TIRTOS/PDK_AM~1/packages/ti/starterware/binary/board/lib/am335x-evm/a8/debug/gcc\libboard.a(am335x_evmsk.o)
 .text          0x00000000        0x0 E:/uC-Soft/TI/TIRTOS/PDK_AM~1/packages/ti/starterware/binary/board/lib/am335x-evm/a8/debug/gcc\libboard.a(am335x_beaglebone.o)
 .data          0x00000000        0x0 E:/uC-Soft/TI/TIRTOS/PDK_AM~1/packages/ti/starterware/binary/board/lib/am335x-evm/a8/debug/gcc\libboard.a(am335x_beaglebone.o)
 .bss           0x00000000        0x0 E:/uC-Soft/TI/TIRTOS/PDK_AM~1/packages/ti/starterware/binary/board/lib/am335x-evm/a8/debug/gcc\libboard.a(am335x_beaglebone.o)
 .text          0x00000000        0x0 E:/uC-Soft/TI/TIRTOS/PDK_AM~1/packages/ti/starterware/binary/board/lib/am335x-evm/a8/debug/gcc\libboard.a(am335x_beagleboneblack.o)
 .data          0x00000000        0x0 E:/uC-Soft/TI/TIRTOS/PDK_AM~1/packages/ti/starterware/binary/board/lib/am335x-evm/a8/debug/gcc\libboard.a(am335x_beagleboneblack.o)
 .bss           0x00000000        0x0 E:/uC-Soft/TI/TIRTOS/PDK_AM~1/packages/ti/starterware/binary/board/lib/am335x-evm/a8/debug/gcc\libboard.a(am335x_beagleboneblack.o)
 .rodata.gBoardAm335xBeagleboneblackLcd4DevData
                0x00000000        0x8 E:/uC-Soft/TI/TIRTOS/PDK_AM~1/packages/ti/starterware/binary/board/lib/am335x-evm/a8/debug/gcc\libboard.a(am335x_beagleboneblack.o)
 .text          0x00000000        0x0 E:/uC-Soft/TI/TIRTOS/PDK_AM~1/packages/ti/starterware/binary/board/lib/am335x-evm/a8/debug/gcc\libboard.a(am335x_icev1.o)
 .data          0x00000000        0x0 E:/uC-Soft/TI/TIRTOS/PDK_AM~1/packages/ti/starterware/binary/board/lib/am335x-evm/a8/debug/gcc\libboard.a(am335x_icev1.o)
 .bss           0x00000000        0x0 E:/uC-Soft/TI/TIRTOS/PDK_AM~1/packages/ti/starterware/binary/board/lib/am335x-evm/a8/debug/gcc\libboard.a(am335x_icev1.o)
 .text          0x00000000        0x0 E:/uC-Soft/TI/TIRTOS/PDK_AM~1/packages/ti/starterware/binary/board/lib/am335x-evm/a8/debug/gcc\libboard.a(am335x_icev2.o)
 .data          0x00000000        0x0 E:/uC-Soft/TI/TIRTOS/PDK_AM~1/packages/ti/starterware/binary/board/lib/am335x-evm/a8/debug/gcc\libboard.a(am335x_icev2.o)
 .bss           0x00000000        0x0 E:/uC-Soft/TI/TIRTOS/PDK_AM~1/packages/ti/starterware/binary/board/lib/am335x-evm/a8/debug/gcc\libboard.a(am335x_icev2.o)
 .text          0x00000000        0x0 E:/uC-Soft/TI/TIRTOS/PDK_AM~1/packages/ti/starterware/binary/board/lib/am335x-evm/a8/debug/gcc\libboard.a(am335x_amic110.o)
 .data          0x00000000        0x0 E:/uC-Soft/TI/TIRTOS/PDK_AM~1/packages/ti/starterware/binary/board/lib/am335x-evm/a8/debug/gcc\libboard.a(am335x_amic110.o)
 .bss           0x00000000        0x0 E:/uC-Soft/TI/TIRTOS/PDK_AM~1/packages/ti/starterware/binary/board/lib/am335x-evm/a8/debug/gcc\libboard.a(am335x_amic110.o)
 .text          0x00000000        0x0 E:/uC-Soft/TI/TIRTOS/PDK_AM~1/packages/ti/starterware/binary/board/lib/am335x-evm/a8/debug/gcc\libboard.a(am335x_custom.o)
 .data          0x00000000        0x0 E:/uC-Soft/TI/TIRTOS/PDK_AM~1/packages/ti/starterware/binary/board/lib/am335x-evm/a8/debug/gcc\libboard.a(am335x_custom.o)
 .bss           0x00000000        0x0 E:/uC-Soft/TI/TIRTOS/PDK_AM~1/packages/ti/starterware/binary/board/lib/am335x-evm/a8/debug/gcc\libboard.a(am335x_custom.o)
 .text          0x00000000        0x0 E:/uC-Soft/TI/TIRTOS/PDK_AM~1/packages/ti/starterware/binary/board/lib/am335x-evm/a8/debug/gcc\libboard.a(am335x_gpevm_pinmux_data.o)
 .data          0x00000000        0x0 E:/uC-Soft/TI/TIRTOS/PDK_AM~1/packages/ti/starterware/binary/board/lib/am335x-evm/a8/debug/gcc\libboard.a(am335x_gpevm_pinmux_data.o)
 .bss           0x00000000        0x0 E:/uC-Soft/TI/TIRTOS/PDK_AM~1/packages/ti/starterware/binary/board/lib/am335x-evm/a8/debug/gcc\libboard.a(am335x_gpevm_pinmux_data.o)
 .text          0x00000000        0x0 E:/uC-Soft/TI/TIRTOS/PDK_AM~1/packages/ti/starterware/binary/board/lib/am335x-evm/a8/debug/gcc\libboard.a(am335x_evmsk_pinmux_data.o)
 .data          0x00000000        0x0 E:/uC-Soft/TI/TIRTOS/PDK_AM~1/packages/ti/starterware/binary/board/lib/am335x-evm/a8/debug/gcc\libboard.a(am335x_evmsk_pinmux_data.o)
 .bss           0x00000000        0x0 E:/uC-Soft/TI/TIRTOS/PDK_AM~1/packages/ti/starterware/binary/board/lib/am335x-evm/a8/debug/gcc\libboard.a(am335x_evmsk_pinmux_data.o)
 .text          0x00000000        0x0 E:/uC-Soft/TI/TIRTOS/PDK_AM~1/packages/ti/starterware/binary/board/lib/am335x-evm/a8/debug/gcc\libboard.a(am335x_beaglebone_pinmux_data.o)
 .data          0x00000000        0x0 E:/uC-Soft/TI/TIRTOS/PDK_AM~1/packages/ti/starterware/binary/board/lib/am335x-evm/a8/debug/gcc\libboard.a(am335x_beaglebone_pinmux_data.o)
 .bss           0x00000000        0x0 E:/uC-Soft/TI/TIRTOS/PDK_AM~1/packages/ti/starterware/binary/board/lib/am335x-evm/a8/debug/gcc\libboard.a(am335x_beaglebone_pinmux_data.o)
 .text          0x00000000        0x0 E:/uC-Soft/TI/TIRTOS/PDK_AM~1/packages/ti/starterware/binary/board/lib/am335x-evm/a8/debug/gcc\libboard.a(am335x_beagleboneblack_pinmux_data.o)
 .data          0x00000000        0x0 E:/uC-Soft/TI/TIRTOS/PDK_AM~1/packages/ti/starterware/binary/board/lib/am335x-evm/a8/debug/gcc\libboard.a(am335x_beagleboneblack_pinmux_data.o)
 .bss           0x00000000        0x0 E:/uC-Soft/TI/TIRTOS/PDK_AM~1/packages/ti/starterware/binary/board/lib/am335x-evm/a8/debug/gcc\libboard.a(am335x_beagleboneblack_pinmux_data.o)
 .text          0x00000000        0x0 E:/uC-Soft/TI/TIRTOS/PDK_AM~1/packages/ti/starterware/binary/board/lib/am335x-evm/a8/debug/gcc\libboard.a(am335x_icev1_pinmux_data.o)
 .data          0x00000000        0x0 E:/uC-Soft/TI/TIRTOS/PDK_AM~1/packages/ti/starterware/binary/board/lib/am335x-evm/a8/debug/gcc\libboard.a(am335x_icev1_pinmux_data.o)
 .bss           0x00000000        0x0 E:/uC-Soft/TI/TIRTOS/PDK_AM~1/packages/ti/starterware/binary/board/lib/am335x-evm/a8/debug/gcc\libboard.a(am335x_icev1_pinmux_data.o)
 .text          0x00000000        0x0 E:/uC-Soft/TI/TIRTOS/PDK_AM~1/packages/ti/starterware/binary/board/lib/am335x-evm/a8/debug/gcc\libboard.a(am335x_icev2_pinmux_data.o)
 .data          0x00000000        0x0 E:/uC-Soft/TI/TIRTOS/PDK_AM~1/packages/ti/starterware/binary/board/lib/am335x-evm/a8/debug/gcc\libboard.a(am335x_icev2_pinmux_data.o)
 .bss           0x00000000        0x0 E:/uC-Soft/TI/TIRTOS/PDK_AM~1/packages/ti/starterware/binary/board/lib/am335x-evm/a8/debug/gcc\libboard.a(am335x_icev2_pinmux_data.o)
 .text          0x00000000        0x0 E:/uC-Soft/TI/TIRTOS/PDK_AM~1/packages/ti/starterware/binary/board/lib/am335x-evm/a8/debug/gcc\libboard.a(am335x_amic11x_pinmux_data.o)
 .data          0x00000000        0x0 E:/uC-Soft/TI/TIRTOS/PDK_AM~1/packages/ti/starterware/binary/board/lib/am335x-evm/a8/debug/gcc\libboard.a(am335x_amic11x_pinmux_data.o)
 .bss           0x00000000        0x0 E:/uC-Soft/TI/TIRTOS/PDK_AM~1/packages/ti/starterware/binary/board/lib/am335x-evm/a8/debug/gcc\libboard.a(am335x_amic11x_pinmux_data.o)
 .text          0x00000000        0x0 E:/uC-Soft/TI/TIRTOS/PDK_AM~1/packages/ti/starterware/binary/board/lib/am335x-evm/a8/debug/gcc\libboard.a(am335x_lcd4_dcard.o)
 .data          0x00000000        0x0 E:/uC-Soft/TI/TIRTOS/PDK_AM~1/packages/ti/starterware/binary/board/lib/am335x-evm/a8/debug/gcc\libboard.a(am335x_lcd4_dcard.o)
 .bss           0x00000000        0x0 E:/uC-Soft/TI/TIRTOS/PDK_AM~1/packages/ti/starterware/binary/board/lib/am335x-evm/a8/debug/gcc\libboard.a(am335x_lcd4_dcard.o)
 .text          0x00000000        0x0 E:/uC-Soft/TI/TIRTOS/PDK_AM~1/packages/ti/starterware/binary/utils/lib/am335x-evm/a8/debug/gcc\libutils.a(console_utils.o)
 .data          0x00000000        0x0 E:/uC-Soft/TI/TIRTOS/PDK_AM~1/packages/ti/starterware/binary/utils/lib/am335x-evm/a8/debug/gcc\libutils.a(console_utils.o)
 .bss           0x00000000        0x0 E:/uC-Soft/TI/TIRTOS/PDK_AM~1/packages/ti/starterware/binary/utils/lib/am335x-evm/a8/debug/gcc\libutils.a(console_utils.o)
 .text.CONSOLEUtilsInit
                0x00000000       0x20 E:/uC-Soft/TI/TIRTOS/PDK_AM~1/packages/ti/starterware/binary/utils/lib/am335x-evm/a8/debug/gcc\libutils.a(console_utils.o)
 .text.CONSOLEUtilsGetType
                0x00000000       0x24 E:/uC-Soft/TI/TIRTOS/PDK_AM~1/packages/ti/starterware/binary/utils/lib/am335x-evm/a8/debug/gcc\libutils.a(console_utils.o)
 .text.CONSOLEUtilsSetType
                0x00000000       0x68 E:/uC-Soft/TI/TIRTOS/PDK_AM~1/packages/ti/starterware/binary/utils/lib/am335x-evm/a8/debug/gcc\libutils.a(console_utils.o)
 .text.CONSOLEUtilsGetc
                0x00000000       0x60 E:/uC-Soft/TI/TIRTOS/PDK_AM~1/packages/ti/starterware/binary/utils/lib/am335x-evm/a8/debug/gcc\libutils.a(console_utils.o)
 .text.CONSOLEUtilsPutc
                0x00000000       0x68 E:/uC-Soft/TI/TIRTOS/PDK_AM~1/packages/ti/starterware/binary/utils/lib/am335x-evm/a8/debug/gcc\libutils.a(console_utils.o)
 .text.CONSOLEUtilsGets
                0x00000000       0x80 E:/uC-Soft/TI/TIRTOS/PDK_AM~1/packages/ti/starterware/binary/utils/lib/am335x-evm/a8/debug/gcc\libutils.a(console_utils.o)
 .text.CONSOLEUtilsScanf
                0x00000000       0x84 E:/uC-Soft/TI/TIRTOS/PDK_AM~1/packages/ti/starterware/binary/utils/lib/am335x-evm/a8/debug/gcc\libutils.a(console_utils.o)
 .text.CONSOLEUtilsGetNonBlockingInput
                0x00000000       0x84 E:/uC-Soft/TI/TIRTOS/PDK_AM~1/packages/ti/starterware/binary/utils/lib/am335x-evm/a8/debug/gcc\libutils.a(console_utils.o)
 .text.ConsoleUtilsInit
                0x00000000       0x1c E:/uC-Soft/TI/TIRTOS/PDK_AM~1/packages/ti/starterware/binary/utils/lib/am335x-evm/a8/debug/gcc\libutils.a(console_utils.o)
 .text.ConsoleUtilsSetType
                0x00000000       0x54 E:/uC-Soft/TI/TIRTOS/PDK_AM~1/packages/ti/starterware/binary/utils/lib/am335x-evm/a8/debug/gcc\libutils.a(console_utils.o)
 .text.ConsoleUtilsPrintf
                0x00000000       0x6c E:/uC-Soft/TI/TIRTOS/PDK_AM~1/packages/ti/starterware/binary/utils/lib/am335x-evm/a8/debug/gcc\libutils.a(console_utils.o)
 .text.ConsoleUtilsScanf
                0x00000000       0x7c E:/uC-Soft/TI/TIRTOS/PDK_AM~1/packages/ti/starterware/binary/utils/lib/am335x-evm/a8/debug/gcc\libutils.a(console_utils.o)
 .text.ConsoleUtilsGets
                0x00000000       0x74 E:/uC-Soft/TI/TIRTOS/PDK_AM~1/packages/ti/starterware/binary/utils/lib/am335x-evm/a8/debug/gcc\libutils.a(console_utils.o)
 .text.ConsoleUtilsPuts
                0x00000000       0x58 E:/uC-Soft/TI/TIRTOS/PDK_AM~1/packages/ti/starterware/binary/utils/lib/am335x-evm/a8/debug/gcc\libutils.a(console_utils.o)
 .text.ConsoleUtilsGetChar
                0x00000000       0x64 E:/uC-Soft/TI/TIRTOS/PDK_AM~1/packages/ti/starterware/binary/utils/lib/am335x-evm/a8/debug/gcc\libutils.a(console_utils.o)
 .text.ConsoleUtilsPutChar
                0x00000000       0x60 E:/uC-Soft/TI/TIRTOS/PDK_AM~1/packages/ti/starterware/binary/utils/lib/am335x-evm/a8/debug/gcc\libutils.a(console_utils.o)
 .text          0x00000000        0x0 E:/uC-Soft/TI/TIRTOS/PDK_AM~1/packages/ti/starterware/binary/utils/lib/am335x-evm/a8/debug/gcc\libutils.a(i2c_utils.o)
 .data          0x00000000        0x0 E:/uC-Soft/TI/TIRTOS/PDK_AM~1/packages/ti/starterware/binary/utils/lib/am335x-evm/a8/debug/gcc\libutils.a(i2c_utils.o)
 .bss           0x00000000        0x0 E:/uC-Soft/TI/TIRTOS/PDK_AM~1/packages/ti/starterware/binary/utils/lib/am335x-evm/a8/debug/gcc\libutils.a(i2c_utils.o)
 .text          0x00000000        0x0 E:/uC-Soft/TI/TIRTOS/PDK_AM~1/packages/ti/starterware/binary/utils/lib/am335x-evm/a8/debug/gcc\libutils.a(time_utils.o)
 .data          0x00000000        0x0 E:/uC-Soft/TI/TIRTOS/PDK_AM~1/packages/ti/starterware/binary/utils/lib/am335x-evm/a8/debug/gcc\libutils.a(time_utils.o)
 .bss           0x00000000        0x0 E:/uC-Soft/TI/TIRTOS/PDK_AM~1/packages/ti/starterware/binary/utils/lib/am335x-evm/a8/debug/gcc\libutils.a(time_utils.o)
 .data.gDays4Year
                0x00000000       0x60 E:/uC-Soft/TI/TIRTOS/PDK_AM~1/packages/ti/starterware/binary/utils/lib/am335x-evm/a8/debug/gcc\libutils.a(time_utils.o)
 .text.TIMEUtilsInit
                0x00000000       0x3c E:/uC-Soft/TI/TIRTOS/PDK_AM~1/packages/ti/starterware/binary/utils/lib/am335x-evm/a8/debug/gcc\libutils.a(time_utils.o)
 .text.TIMESetTimeStamp
                0x00000000       0x2c E:/uC-Soft/TI/TIRTOS/PDK_AM~1/packages/ti/starterware/binary/utils/lib/am335x-evm/a8/debug/gcc\libutils.a(time_utils.o)
 .text.TIMEStamp2TimeDate
                0x00000000      0x2d8 E:/uC-Soft/TI/TIRTOS/PDK_AM~1/packages/ti/starterware/binary/utils/lib/am335x-evm/a8/debug/gcc\libutils.a(time_utils.o)
 .text.TIMEDate2TimeStamp
                0x00000000      0x1d4 E:/uC-Soft/TI/TIRTOS/PDK_AM~1/packages/ti/starterware/binary/utils/lib/am335x-evm/a8/debug/gcc\libutils.a(time_utils.o)
 .text.DELAYUsec
                0x00000000       0xa0 E:/uC-Soft/TI/TIRTOS/PDK_AM~1/packages/ti/starterware/binary/utils/lib/am335x-evm/a8/debug/gcc\libutils.a(time_utils.o)
 .text          0x00000000        0x0 E:/uC-Soft/TI/TIRTOS/PDK_AM~1/packages/ti/starterware/binary/utils/lib/am335x-evm/a8/debug/gcc\libutils.a(dmtimer_utils.o)
 .data          0x00000000        0x0 E:/uC-Soft/TI/TIRTOS/PDK_AM~1/packages/ti/starterware/binary/utils/lib/am335x-evm/a8/debug/gcc\libutils.a(dmtimer_utils.o)
 .bss           0x00000000        0x0 E:/uC-Soft/TI/TIRTOS/PDK_AM~1/packages/ti/starterware/binary/utils/lib/am335x-evm/a8/debug/gcc\libutils.a(dmtimer_utils.o)
 .data.gTimerClkSel
                0x00000000       0x14 E:/uC-Soft/TI/TIRTOS/PDK_AM~1/packages/ti/starterware/binary/utils/lib/am335x-evm/a8/debug/gcc\libutils.a(dmtimer_utils.o)
 .rodata        0x00000000       0x36 E:/uC-Soft/TI/TIRTOS/PDK_AM~1/packages/ti/starterware/binary/utils/lib/am335x-evm/a8/debug/gcc\libutils.a(dmtimer_utils.o)
 .text.TIMERUtilFreeRunInit
                0x00000000      0x214 E:/uC-Soft/TI/TIRTOS/PDK_AM~1/packages/ti/starterware/binary/utils/lib/am335x-evm/a8/debug/gcc\libutils.a(dmtimer_utils.o)
 .text.TIMERUtilSetTimeStamp
                0x00000000       0xcc E:/uC-Soft/TI/TIRTOS/PDK_AM~1/packages/ti/starterware/binary/utils/lib/am335x-evm/a8/debug/gcc\libutils.a(dmtimer_utils.o)
 .text.TimerFreeRunIsr
                0x00000000       0xa4 E:/uC-Soft/TI/TIRTOS/PDK_AM~1/packages/ti/starterware/binary/utils/lib/am335x-evm/a8/debug/gcc\libutils.a(dmtimer_utils.o)
 .text          0x00000000        0x0 E:/uC-Soft/TI/TIRTOS/PDK_AM~1/packages/ti/starterware/binary/utils/lib/am335x-evm/a8/debug/gcc\libutils.a(console_utils_uart.o)
 .data          0x00000000        0x0 E:/uC-Soft/TI/TIRTOS/PDK_AM~1/packages/ti/starterware/binary/utils/lib/am335x-evm/a8/debug/gcc\libutils.a(console_utils_uart.o)
 .bss           0x00000000        0x0 E:/uC-Soft/TI/TIRTOS/PDK_AM~1/packages/ti/starterware/binary/utils/lib/am335x-evm/a8/debug/gcc\libutils.a(console_utils_uart.o)
 .text.HW_WR_REG32
                0x00000000       0x34 E:/uC-Soft/TI/TIRTOS/PDK_AM~1/packages/ti/starterware/binary/utils/lib/am335x-evm/a8/debug/gcc\libutils.a(console_utils_uart.o)
 .rodata.UART_CONSOLE_DEFAULT
                0x00000000       0x18 E:/uC-Soft/TI/TIRTOS/PDK_AM~1/packages/ti/starterware/binary/utils/lib/am335x-evm/a8/debug/gcc\libutils.a(console_utils_uart.o)
 .rodata.gpHex  0x00000000        0x4 E:/uC-Soft/TI/TIRTOS/PDK_AM~1/packages/ti/starterware/binary/utils/lib/am335x-evm/a8/debug/gcc\libutils.a(console_utils_uart.o)
 .text.CONSOLEUtilsUartInit
                0x00000000      0x180 E:/uC-Soft/TI/TIRTOS/PDK_AM~1/packages/ti/starterware/binary/utils/lib/am335x-evm/a8/debug/gcc\libutils.a(console_utils_uart.o)
 .text.CONSOLEUtilsUartGetChar
                0x00000000       0x98 E:/uC-Soft/TI/TIRTOS/PDK_AM~1/packages/ti/starterware/binary/utils/lib/am335x-evm/a8/debug/gcc\libutils.a(console_utils_uart.o)
 .text.CONSOLEUtilsUartGetStr
                0x00000000      0x15c E:/uC-Soft/TI/TIRTOS/PDK_AM~1/packages/ti/starterware/binary/utils/lib/am335x-evm/a8/debug/gcc\libutils.a(console_utils_uart.o)
 .text.CONSOLEUtilsUartScanFmt
                0x00000000      0x2d0 E:/uC-Soft/TI/TIRTOS/PDK_AM~1/packages/ti/starterware/binary/utils/lib/am335x-evm/a8/debug/gcc\libutils.a(console_utils_uart.o)
 .text.CONSOLEUtilsUartGetNonBlockingInput
                0x00000000      0x230 E:/uC-Soft/TI/TIRTOS/PDK_AM~1/packages/ti/starterware/binary/utils/lib/am335x-evm/a8/debug/gcc\libutils.a(console_utils_uart.o)
 .text.CONSOLEUtilsUartGetBlockingInput
                0x00000000      0x160 E:/uC-Soft/TI/TIRTOS/PDK_AM~1/packages/ti/starterware/binary/utils/lib/am335x-evm/a8/debug/gcc\libutils.a(console_utils_uart.o)
 .text.ConsoleUtilsUartClearBuf
                0x00000000      0x10c E:/uC-Soft/TI/TIRTOS/PDK_AM~1/packages/ti/starterware/binary/utils/lib/am335x-evm/a8/debug/gcc\libutils.a(console_utils_uart.o)
 .text.ConsoleUtilsUartDecode
                0x00000000      0x994 E:/uC-Soft/TI/TIRTOS/PDK_AM~1/packages/ti/starterware/binary/utils/lib/am335x-evm/a8/debug/gcc\libutils.a(console_utils_uart.o)
 .text.ConsoleUtilsUartPinMuxSetup
                0x00000000      0x108 E:/uC-Soft/TI/TIRTOS/PDK_AM~1/packages/ti/starterware/binary/utils/lib/am335x-evm/a8/debug/gcc\libutils.a(console_utils_uart.o)
 .text.ConsoleUtilsUartBlockingRead
                0x00000000      0x3e4 E:/uC-Soft/TI/TIRTOS/PDK_AM~1/packages/ti/starterware/binary/utils/lib/am335x-evm/a8/debug/gcc\libutils.a(console_utils_uart.o)
 .text.ConsoleUtilsUartNonBlockingRead
                0x00000000      0x410 E:/uC-Soft/TI/TIRTOS/PDK_AM~1/packages/ti/starterware/binary/utils/lib/am335x-evm/a8/debug/gcc\libutils.a(console_utils_uart.o)
 .text          0x00000000        0x0 E:/uC-Soft/TI/TIRTOS/PDK_AM~1/packages/ti/starterware/binary/utils/lib/am335x-evm/a8/debug/gcc\libutils.a(ascii_utils.o)
 .data          0x00000000        0x0 E:/uC-Soft/TI/TIRTOS/PDK_AM~1/packages/ti/starterware/binary/utils/lib/am335x-evm/a8/debug/gcc\libutils.a(ascii_utils.o)
 .bss           0x00000000        0x0 E:/uC-Soft/TI/TIRTOS/PDK_AM~1/packages/ti/starterware/binary/utils/lib/am335x-evm/a8/debug/gcc\libutils.a(ascii_utils.o)
 .text.ASCIIUtilsCharToDigit
                0x00000000       0xd8 E:/uC-Soft/TI/TIRTOS/PDK_AM~1/packages/ti/starterware/binary/utils/lib/am335x-evm/a8/debug/gcc\libutils.a(ascii_utils.o)
 .text.ASCIIUtilsDigitToChar
                0x00000000       0xa4 E:/uC-Soft/TI/TIRTOS/PDK_AM~1/packages/ti/starterware/binary/utils/lib/am335x-evm/a8/debug/gcc\libutils.a(ascii_utils.o)
 .text.ASCIIUtilsStrToEthrAddr
                0x00000000      0x238 E:/uC-Soft/TI/TIRTOS/PDK_AM~1/packages/ti/starterware/binary/utils/lib/am335x-evm/a8/debug/gcc\libutils.a(ascii_utils.o)
 .text.ASCIIUtilsEthrAddrToStr
                0x00000000      0x24c E:/uC-Soft/TI/TIRTOS/PDK_AM~1/packages/ti/starterware/binary/utils/lib/am335x-evm/a8/debug/gcc\libutils.a(ascii_utils.o)
 .text.ASCIIUtilsTimeToStr
                0x00000000      0x254 E:/uC-Soft/TI/TIRTOS/PDK_AM~1/packages/ti/starterware/binary/utils/lib/am335x-evm/a8/debug/gcc\libutils.a(ascii_utils.o)
 .text.ASCIIUtilsDateToStr
                0x00000000      0x254 E:/uC-Soft/TI/TIRTOS/PDK_AM~1/packages/ti/starterware/binary/utils/lib/am335x-evm/a8/debug/gcc\libutils.a(ascii_utils.o)
 .text.ASCIIToDigit
                0x00000000       0x40 E:/uC-Soft/TI/TIRTOS/PDK_AM~1/packages/ti/starterware/binary/utils/lib/am335x-evm/a8/debug/gcc\libutils.a(ascii_utils.o)
 .text.DigitToASCII
                0x00000000       0x40 E:/uC-Soft/TI/TIRTOS/PDK_AM~1/packages/ti/starterware/binary/utils/lib/am335x-evm/a8/debug/gcc\libutils.a(ascii_utils.o)
 .text.StrToEthrAddr
                0x00000000       0x38 E:/uC-Soft/TI/TIRTOS/PDK_AM~1/packages/ti/starterware/binary/utils/lib/am335x-evm/a8/debug/gcc\libutils.a(ascii_utils.o)
 .text.EthrAddrToStr
                0x00000000       0x38 E:/uC-Soft/TI/TIRTOS/PDK_AM~1/packages/ti/starterware/binary/utils/lib/am335x-evm/a8/debug/gcc\libutils.a(ascii_utils.o)
 .text.TimeToStr
                0x00000000       0x38 E:/uC-Soft/TI/TIRTOS/PDK_AM~1/packages/ti/starterware/binary/utils/lib/am335x-evm/a8/debug/gcc\libutils.a(ascii_utils.o)
 .text.DateToStr
                0x00000000       0x38 E:/uC-Soft/TI/TIRTOS/PDK_AM~1/packages/ti/starterware/binary/utils/lib/am335x-evm/a8/debug/gcc\libutils.a(ascii_utils.o)
 .debug_info    0x00000000      0xd41 E:/uC-Soft/TI/TIRTOS/PDK_AM~1/packages/ti/starterware/binary/utils/lib/am335x-evm/a8/debug/gcc\libutils.a(ascii_utils.o)
 .debug_abbrev  0x00000000      0x1e1 E:/uC-Soft/TI/TIRTOS/PDK_AM~1/packages/ti/starterware/binary/utils/lib/am335x-evm/a8/debug/gcc\libutils.a(ascii_utils.o)
 .debug_aranges
                0x00000000       0x78 E:/uC-Soft/TI/TIRTOS/PDK_AM~1/packages/ti/starterware/binary/utils/lib/am335x-evm/a8/debug/gcc\libutils.a(ascii_utils.o)
 .debug_ranges  0x00000000       0x68 E:/uC-Soft/TI/TIRTOS/PDK_AM~1/packages/ti/starterware/binary/utils/lib/am335x-evm/a8/debug/gcc\libutils.a(ascii_utils.o)
 .debug_line    0x00000000      0x3dd E:/uC-Soft/TI/TIRTOS/PDK_AM~1/packages/ti/starterware/binary/utils/lib/am335x-evm/a8/debug/gcc\libutils.a(ascii_utils.o)
 .debug_str     0x00000000      0x74e E:/uC-Soft/TI/TIRTOS/PDK_AM~1/packages/ti/starterware/binary/utils/lib/am335x-evm/a8/debug/gcc\libutils.a(ascii_utils.o)
 .comment       0x00000000       0x80 E:/uC-Soft/TI/TIRTOS/PDK_AM~1/packages/ti/starterware/binary/utils/lib/am335x-evm/a8/debug/gcc\libutils.a(ascii_utils.o)
 .debug_frame   0x00000000      0x1a0 E:/uC-Soft/TI/TIRTOS/PDK_AM~1/packages/ti/starterware/binary/utils/lib/am335x-evm/a8/debug/gcc\libutils.a(ascii_utils.o)
 .ARM.attributes
                0x00000000       0x3d E:/uC-Soft/TI/TIRTOS/PDK_AM~1/packages/ti/starterware/binary/utils/lib/am335x-evm/a8/debug/gcc\libutils.a(ascii_utils.o)
 .data          0x00000000        0x0 E:/uC-Soft/TI/TIRTOS/PDK_AM~1/packages/ti/starterware/binary/soc/lib/am335x-evm/a8/debug/gcc\libsoc.a(init.o)
 .bss           0x00000000        0x0 E:/uC-Soft/TI/TIRTOS/PDK_AM~1/packages/ti/starterware/binary/soc/lib/am335x-evm/a8/debug/gcc\libsoc.a(init.o)
 .text          0x00000000        0x0 E:/uC-Soft/TI/TIRTOS/PDK_AM~1/packages/ti/starterware/binary/soc/lib/am335x-evm/a8/debug/gcc\libsoc.a(soc.o)
 .data          0x00000000        0x0 E:/uC-Soft/TI/TIRTOS/PDK_AM~1/packages/ti/starterware/binary/soc/lib/am335x-evm/a8/debug/gcc\libsoc.a(soc.o)
 .bss           0x00000000        0x0 E:/uC-Soft/TI/TIRTOS/PDK_AM~1/packages/ti/starterware/binary/soc/lib/am335x-evm/a8/debug/gcc\libsoc.a(soc.o)
 .rodata        0x00000000       0x60 E:/uC-Soft/TI/TIRTOS/PDK_AM~1/packages/ti/starterware/binary/soc/lib/am335x-evm/a8/debug/gcc\libsoc.a(soc.o)
 .data.gSocFamilyIdStrTable
                0x00000000       0x18 E:/uC-Soft/TI/TIRTOS/PDK_AM~1/packages/ti/starterware/binary/soc/lib/am335x-evm/a8/debug/gcc\libsoc.a(soc.o)
 .data.gSocCoreIdStrTable
                0x00000000       0x18 E:/uC-Soft/TI/TIRTOS/PDK_AM~1/packages/ti/starterware/binary/soc/lib/am335x-evm/a8/debug/gcc\libsoc.a(soc.o)
 .text.SOCGetCoreId
                0x00000000       0x30 E:/uC-Soft/TI/TIRTOS/PDK_AM~1/packages/ti/starterware/binary/soc/lib/am335x-evm/a8/debug/gcc\libsoc.a(soc.o)
 .text.SOCGetSocFamilyName
                0x00000000       0xb8 E:/uC-Soft/TI/TIRTOS/PDK_AM~1/packages/ti/starterware/binary/soc/lib/am335x-evm/a8/debug/gcc\libsoc.a(soc.o)
 .text.SOCGetCoreName
                0x00000000       0xb8 E:/uC-Soft/TI/TIRTOS/PDK_AM~1/packages/ti/starterware/binary/soc/lib/am335x-evm/a8/debug/gcc\libsoc.a(soc.o)
 .text.SOCPrintInfo
                0x00000000       0x60 E:/uC-Soft/TI/TIRTOS/PDK_AM~1/packages/ti/starterware/binary/soc/lib/am335x-evm/a8/debug/gcc\libsoc.a(soc.o)
 .text          0x00000000        0x0 E:/uC-Soft/TI/TIRTOS/PDK_AM~1/packages/ti/starterware/binary/soc/lib/am335x-evm/a8/debug/gcc\libsoc.a(startup.o)
 .data          0x00000000        0x0 E:/uC-Soft/TI/TIRTOS/PDK_AM~1/packages/ti/starterware/binary/soc/lib/am335x-evm/a8/debug/gcc\libsoc.a(startup.o)
 .bss           0x00000000        0x0 E:/uC-Soft/TI/TIRTOS/PDK_AM~1/packages/ti/starterware/binary/soc/lib/am335x-evm/a8/debug/gcc\libsoc.a(startup.o)
 .text          0x00000000        0x0 E:/uC-Soft/TI/TIRTOS/PDK_AM~1/packages/ti/starterware/binary/soc/lib/am335x-evm/a8/debug/gcc\libsoc.a(am335x_chipdb.o)
 .data          0x00000000        0x0 E:/uC-Soft/TI/TIRTOS/PDK_AM~1/packages/ti/starterware/binary/soc/lib/am335x-evm/a8/debug/gcc\libsoc.a(am335x_chipdb.o)
 .bss           0x00000000        0x0 E:/uC-Soft/TI/TIRTOS/PDK_AM~1/packages/ti/starterware/binary/soc/lib/am335x-evm/a8/debug/gcc\libsoc.a(am335x_chipdb.o)
 .text.CHIPDBEnable
                0x00000000       0x28 E:/uC-Soft/TI/TIRTOS/PDK_AM~1/packages/ti/starterware/binary/soc/lib/am335x-evm/a8/debug/gcc\libsoc.a(am335x_chipdb.o)
 .text.CHIPDBDisable
                0x00000000       0x28 E:/uC-Soft/TI/TIRTOS/PDK_AM~1/packages/ti/starterware/binary/soc/lib/am335x-evm/a8/debug/gcc\libsoc.a(am335x_chipdb.o)
 .text.CHIPDBModuleMaxInstanceNumber
                0x00000000       0x64 E:/uC-Soft/TI/TIRTOS/PDK_AM~1/packages/ti/starterware/binary/soc/lib/am335x-evm/a8/debug/gcc\libsoc.a(am335x_chipdb.o)
 .text.CHIPDBResourceMaxFrequency
                0x00000000       0xac E:/uC-Soft/TI/TIRTOS/PDK_AM~1/packages/ti/starterware/binary/soc/lib/am335x-evm/a8/debug/gcc\libsoc.a(am335x_chipdb.o)
 .text.CHIPDBMaxJunctionTemperature
                0x00000000       0x4c E:/uC-Soft/TI/TIRTOS/PDK_AM~1/packages/ti/starterware/binary/soc/lib/am335x-evm/a8/debug/gcc\libsoc.a(am335x_chipdb.o)
 .text.CHIPDBMinJunctionTemperature
                0x00000000       0x4c E:/uC-Soft/TI/TIRTOS/PDK_AM~1/packages/ti/starterware/binary/soc/lib/am335x-evm/a8/debug/gcc\libsoc.a(am335x_chipdb.o)
 .text.CHIPDBPackageType
                0x00000000       0x64 E:/uC-Soft/TI/TIRTOS/PDK_AM~1/packages/ti/starterware/binary/soc/lib/am335x-evm/a8/debug/gcc\libsoc.a(am335x_chipdb.o)
 .text.CHIPDBDeviceRevision
                0x00000000       0x20 E:/uC-Soft/TI/TIRTOS/PDK_AM~1/packages/ti/starterware/binary/soc/lib/am335x-evm/a8/debug/gcc\libsoc.a(am335x_chipdb.o)
 .text.ChipDBInterruptNum
                0x00000000       0xa4 E:/uC-Soft/TI/TIRTOS/PDK_AM~1/packages/ti/starterware/binary/soc/lib/am335x-evm/a8/debug/gcc\libsoc.a(am335x_chipdb.o)
 .text.ChipDBReadSGEncoding
                0x00000000       0x28 E:/uC-Soft/TI/TIRTOS/PDK_AM~1/packages/ti/starterware/binary/soc/lib/am335x-evm/a8/debug/gcc\libsoc.a(am335x_chipdb.o)
 .text.ChipDBReadJTEncoding
                0x00000000       0x28 E:/uC-Soft/TI/TIRTOS/PDK_AM~1/packages/ti/starterware/binary/soc/lib/am335x-evm/a8/debug/gcc\libsoc.a(am335x_chipdb.o)
 .text.ChipDBReadPackageEncoding
                0x00000000       0x28 E:/uC-Soft/TI/TIRTOS/PDK_AM~1/packages/ti/starterware/binary/soc/lib/am335x-evm/a8/debug/gcc\libsoc.a(am335x_chipdb.o)
 .text.ChipDBReadRevisionEncoding
                0x00000000       0x64 E:/uC-Soft/TI/TIRTOS/PDK_AM~1/packages/ti/starterware/binary/soc/lib/am335x-evm/a8/debug/gcc\libsoc.a(am335x_chipdb.o)
 .text          0x00000000        0x0 E:/uC-Soft/TI/TIRTOS/PDK_AM~1/packages/ti/starterware/binary/soc/lib/am335x-evm/a8/debug/gcc\libsoc.a(hw_am335x_chipdb.o)
 .data          0x00000000        0x0 E:/uC-Soft/TI/TIRTOS/PDK_AM~1/packages/ti/starterware/binary/soc/lib/am335x-evm/a8/debug/gcc\libsoc.a(hw_am335x_chipdb.o)
 .bss           0x00000000        0x0 E:/uC-Soft/TI/TIRTOS/PDK_AM~1/packages/ti/starterware/binary/soc/lib/am335x-evm/a8/debug/gcc\libsoc.a(hw_am335x_chipdb.o)
 .rodata.gChipDBSpeedGrade
                0x00000000        0x4 E:/uC-Soft/TI/TIRTOS/PDK_AM~1/packages/ti/starterware/binary/soc/lib/am335x-evm/a8/debug/gcc\libsoc.a(hw_am335x_chipdb.o)
 .text.CHIPDBSpeedGradeProcID
                0x00000000       0x24 E:/uC-Soft/TI/TIRTOS/PDK_AM~1/packages/ti/starterware/binary/soc/lib/am335x-evm/a8/debug/gcc\libsoc.a(hw_am335x_chipdb.o)
 .text          0x00000000        0x0 E:/uC-Soft/TI/TIRTOS/PDK_AM~1/packages/ti/starterware/binary/soc/lib/am335x-evm/a8/debug/gcc\libsoc.a(hw_am335x_chipdb_baseaddr.o)
 .data          0x00000000        0x0 E:/uC-Soft/TI/TIRTOS/PDK_AM~1/packages/ti/starterware/binary/soc/lib/am335x-evm/a8/debug/gcc\libsoc.a(hw_am335x_chipdb_baseaddr.o)
 .bss           0x00000000        0x0 E:/uC-Soft/TI/TIRTOS/PDK_AM~1/packages/ti/starterware/binary/soc/lib/am335x-evm/a8/debug/gcc\libsoc.a(hw_am335x_chipdb_baseaddr.o)
 .text          0x00000000        0x0 E:/uC-Soft/TI/TIRTOS/PDK_AM~1/packages/ti/starterware/binary/soc/lib/am335x-evm/a8/debug/gcc\libsoc.a(hw_am335x_chipdb_interrupt.o)
 .data          0x00000000        0x0 E:/uC-Soft/TI/TIRTOS/PDK_AM~1/packages/ti/starterware/binary/soc/lib/am335x-evm/a8/debug/gcc\libsoc.a(hw_am335x_chipdb_interrupt.o)
 .bss           0x00000000        0x0 E:/uC-Soft/TI/TIRTOS/PDK_AM~1/packages/ti/starterware/binary/soc/lib/am335x-evm/a8/debug/gcc\libsoc.a(hw_am335x_chipdb_interrupt.o)
 .rodata.gChipDBUSB0InterruptMap
                0x00000000        0x8 E:/uC-Soft/TI/TIRTOS/PDK_AM~1/packages/ti/starterware/binary/soc/lib/am335x-evm/a8/debug/gcc\libsoc.a(hw_am335x_chipdb_interrupt.o)
 .rodata.gChipDBUSB1InterruptMap
                0x00000000        0x8 E:/uC-Soft/TI/TIRTOS/PDK_AM~1/packages/ti/starterware/binary/soc/lib/am335x-evm/a8/debug/gcc\libsoc.a(hw_am335x_chipdb_interrupt.o)
 .rodata.gChipDBDMTIMER0InterruptMap
                0x00000000        0x2 E:/uC-Soft/TI/TIRTOS/PDK_AM~1/packages/ti/starterware/binary/soc/lib/am335x-evm/a8/debug/gcc\libsoc.a(hw_am335x_chipdb_interrupt.o)
 .rodata.gChipDBDMTIMER2InterruptMap
                0x00000000        0x2 E:/uC-Soft/TI/TIRTOS/PDK_AM~1/packages/ti/starterware/binary/soc/lib/am335x-evm/a8/debug/gcc\libsoc.a(hw_am335x_chipdb_interrupt.o)
 .rodata.gChipDBDMTIMER3InterruptMap
                0x00000000        0x2 E:/uC-Soft/TI/TIRTOS/PDK_AM~1/packages/ti/starterware/binary/soc/lib/am335x-evm/a8/debug/gcc\libsoc.a(hw_am335x_chipdb_interrupt.o)
 .rodata.gChipDBDMTIMER4InterruptMap
                0x00000000        0x2 E:/uC-Soft/TI/TIRTOS/PDK_AM~1/packages/ti/starterware/binary/soc/lib/am335x-evm/a8/debug/gcc\libsoc.a(hw_am335x_chipdb_interrupt.o)
 .rodata.gChipDBDMTIMER5InterruptMap
                0x00000000        0x2 E:/uC-Soft/TI/TIRTOS/PDK_AM~1/packages/ti/starterware/binary/soc/lib/am335x-evm/a8/debug/gcc\libsoc.a(hw_am335x_chipdb_interrupt.o)
 .rodata.gChipDBDMTIMER6InterruptMap
                0x00000000        0x2 E:/uC-Soft/TI/TIRTOS/PDK_AM~1/packages/ti/starterware/binary/soc/lib/am335x-evm/a8/debug/gcc\libsoc.a(hw_am335x_chipdb_interrupt.o)
 .rodata.gChipDBDMTIMER7InterruptMap
                0x00000000        0x2 E:/uC-Soft/TI/TIRTOS/PDK_AM~1/packages/ti/starterware/binary/soc/lib/am335x-evm/a8/debug/gcc\libsoc.a(hw_am335x_chipdb_interrupt.o)
 .data.gChipDBInterruptTables
                0x00000000      0x170 E:/uC-Soft/TI/TIRTOS/PDK_AM~1/packages/ti/starterware/binary/soc/lib/am335x-evm/a8/debug/gcc\libsoc.a(hw_am335x_chipdb_interrupt.o)
 .debug_info    0x00000000      0xdee E:/uC-Soft/TI/TIRTOS/PDK_AM~1/packages/ti/starterware/binary/soc/lib/am335x-evm/a8/debug/gcc\libsoc.a(hw_am335x_chipdb_interrupt.o)
 .debug_abbrev  0x00000000      0x1a1 E:/uC-Soft/TI/TIRTOS/PDK_AM~1/packages/ti/starterware/binary/soc/lib/am335x-evm/a8/debug/gcc\libsoc.a(hw_am335x_chipdb_interrupt.o)
 .debug_aranges
                0x00000000       0x18 E:/uC-Soft/TI/TIRTOS/PDK_AM~1/packages/ti/starterware/binary/soc/lib/am335x-evm/a8/debug/gcc\libsoc.a(hw_am335x_chipdb_interrupt.o)
 .debug_line    0x00000000      0x222 E:/uC-Soft/TI/TIRTOS/PDK_AM~1/packages/ti/starterware/binary/soc/lib/am335x-evm/a8/debug/gcc\libsoc.a(hw_am335x_chipdb_interrupt.o)
 .debug_str     0x00000000     0x14ec E:/uC-Soft/TI/TIRTOS/PDK_AM~1/packages/ti/starterware/binary/soc/lib/am335x-evm/a8/debug/gcc\libsoc.a(hw_am335x_chipdb_interrupt.o)
 .comment       0x00000000       0x80 E:/uC-Soft/TI/TIRTOS/PDK_AM~1/packages/ti/starterware/binary/soc/lib/am335x-evm/a8/debug/gcc\libsoc.a(hw_am335x_chipdb_interrupt.o)
 .ARM.attributes
                0x00000000       0x3d E:/uC-Soft/TI/TIRTOS/PDK_AM~1/packages/ti/starterware/binary/soc/lib/am335x-evm/a8/debug/gcc\libsoc.a(hw_am335x_chipdb_interrupt.o)
 .text          0x00000000        0x0 E:/uC-Soft/TI/TIRTOS/PDK_AM~1/packages/ti/starterware/binary/soc/lib/am335x-evm/a8/debug/gcc\libsoc.a(intc.o)
 .data          0x00000000        0x0 E:/uC-Soft/TI/TIRTOS/PDK_AM~1/packages/ti/starterware/binary/soc/lib/am335x-evm/a8/debug/gcc\libsoc.a(intc.o)
 .bss           0x00000000        0x0 E:/uC-Soft/TI/TIRTOS/PDK_AM~1/packages/ti/starterware/binary/soc/lib/am335x-evm/a8/debug/gcc\libsoc.a(intc.o)
 .text.INTCEnableIntr
                0x00000000       0x78 E:/uC-Soft/TI/TIRTOS/PDK_AM~1/packages/ti/starterware/binary/soc/lib/am335x-evm/a8/debug/gcc\libsoc.a(intc.o)
 .text.INTCDisableIntr
                0x00000000       0x78 E:/uC-Soft/TI/TIRTOS/PDK_AM~1/packages/ti/starterware/binary/soc/lib/am335x-evm/a8/debug/gcc\libsoc.a(intc.o)
 .text.INTCEnableCpuIntr
                0x00000000       0x68 E:/uC-Soft/TI/TIRTOS/PDK_AM~1/packages/ti/starterware/binary/soc/lib/am335x-evm/a8/debug/gcc\libsoc.a(intc.o)
 .text.INTCDisableCpuIntr
                0x00000000       0x20 E:/uC-Soft/TI/TIRTOS/PDK_AM~1/packages/ti/starterware/binary/soc/lib/am335x-evm/a8/debug/gcc\libsoc.a(intc.o)
 .text.INTCClearIntr
                0x00000000       0x74 E:/uC-Soft/TI/TIRTOS/PDK_AM~1/packages/ti/starterware/binary/soc/lib/am335x-evm/a8/debug/gcc\libsoc.a(intc.o)
 .text.INTCTriggerSWIntr
                0x00000000       0x74 E:/uC-Soft/TI/TIRTOS/PDK_AM~1/packages/ti/starterware/binary/soc/lib/am335x-evm/a8/debug/gcc\libsoc.a(intc.o)
 .text.INTCSaveContext
                0x00000000       0x1c E:/uC-Soft/TI/TIRTOS/PDK_AM~1/packages/ti/starterware/binary/soc/lib/am335x-evm/a8/debug/gcc\libsoc.a(intc.o)
 .text.INTCRestoreContext
                0x00000000       0x1c E:/uC-Soft/TI/TIRTOS/PDK_AM~1/packages/ti/starterware/binary/soc/lib/am335x-evm/a8/debug/gcc\libsoc.a(intc.o)
 .text          0x00000000        0x0 E:/uC-Soft/TI/TIRTOS/PDK_AM~1/packages/ti/starterware/binary/soc/lib/am335x-evm/a8/debug/gcc\libsoc.a(cache_arm.o)
 .data          0x00000000        0x0 E:/uC-Soft/TI/TIRTOS/PDK_AM~1/packages/ti/starterware/binary/soc/lib/am335x-evm/a8/debug/gcc\libsoc.a(cache_arm.o)
 .bss           0x00000000        0x0 E:/uC-Soft/TI/TIRTOS/PDK_AM~1/packages/ti/starterware/binary/soc/lib/am335x-evm/a8/debug/gcc\libsoc.a(cache_arm.o)
 .text.CACHERegisterOuterCache
                0x00000000       0x20 E:/uC-Soft/TI/TIRTOS/PDK_AM~1/packages/ti/starterware/binary/soc/lib/am335x-evm/a8/debug/gcc\libsoc.a(cache_arm.o)
 .text.CACHEDisable
                0x00000000       0x94 E:/uC-Soft/TI/TIRTOS/PDK_AM~1/packages/ti/starterware/binary/soc/lib/am335x-evm/a8/debug/gcc\libsoc.a(cache_arm.o)
 .text.CACHEDataCleanAll
                0x00000000       0x1c E:/uC-Soft/TI/TIRTOS/PDK_AM~1/packages/ti/starterware/binary/soc/lib/am335x-evm/a8/debug/gcc\libsoc.a(cache_arm.o)
 .text.CACHEDataCleanRange
                0x00000000       0x38 E:/uC-Soft/TI/TIRTOS/PDK_AM~1/packages/ti/starterware/binary/soc/lib/am335x-evm/a8/debug/gcc\libsoc.a(cache_arm.o)
 .text.CACHEInstInvAll
                0x00000000       0x1c E:/uC-Soft/TI/TIRTOS/PDK_AM~1/packages/ti/starterware/binary/soc/lib/am335x-evm/a8/debug/gcc\libsoc.a(cache_arm.o)
 .text.CACHEDataInvAll
                0x00000000       0x1c E:/uC-Soft/TI/TIRTOS/PDK_AM~1/packages/ti/starterware/binary/soc/lib/am335x-evm/a8/debug/gcc\libsoc.a(cache_arm.o)
 .text.CACHEDataInvRange
                0x00000000       0x38 E:/uC-Soft/TI/TIRTOS/PDK_AM~1/packages/ti/starterware/binary/soc/lib/am335x-evm/a8/debug/gcc\libsoc.a(cache_arm.o)
 .text.CACHEDataCleanInvAll
                0x00000000       0x1c E:/uC-Soft/TI/TIRTOS/PDK_AM~1/packages/ti/starterware/binary/soc/lib/am335x-evm/a8/debug/gcc\libsoc.a(cache_arm.o)
 .text.CACHEDataCleanInvRange
                0x00000000       0x38 E:/uC-Soft/TI/TIRTOS/PDK_AM~1/packages/ti/starterware/binary/soc/lib/am335x-evm/a8/debug/gcc\libsoc.a(cache_arm.o)
 .text.CACHELockByWay
                0x00000000       0x80 E:/uC-Soft/TI/TIRTOS/PDK_AM~1/packages/ti/starterware/binary/soc/lib/am335x-evm/a8/debug/gcc\libsoc.a(cache_arm.o)
 .text.CACHEUnlockByWay
                0x00000000       0x2c E:/uC-Soft/TI/TIRTOS/PDK_AM~1/packages/ti/starterware/binary/soc/lib/am335x-evm/a8/debug/gcc\libsoc.a(cache_arm.o)
 .text.CacheInstInvalidateAll
                0x00000000       0x1c E:/uC-Soft/TI/TIRTOS/PDK_AM~1/packages/ti/starterware/binary/soc/lib/am335x-evm/a8/debug/gcc\libsoc.a(cache_arm.o)
 .text.CacheDataCleanInvalidateAll
                0x00000000       0x1c E:/uC-Soft/TI/TIRTOS/PDK_AM~1/packages/ti/starterware/binary/soc/lib/am335x-evm/a8/debug/gcc\libsoc.a(cache_arm.o)
 .text.CacheDataCleanAll
                0x00000000       0x1c E:/uC-Soft/TI/TIRTOS/PDK_AM~1/packages/ti/starterware/binary/soc/lib/am335x-evm/a8/debug/gcc\libsoc.a(cache_arm.o)
 .text.CacheDataInvalidateAll
                0x00000000       0x1c E:/uC-Soft/TI/TIRTOS/PDK_AM~1/packages/ti/starterware/binary/soc/lib/am335x-evm/a8/debug/gcc\libsoc.a(cache_arm.o)
 .text.CacheDataCleanBuff
                0x00000000       0x38 E:/uC-Soft/TI/TIRTOS/PDK_AM~1/packages/ti/starterware/binary/soc/lib/am335x-evm/a8/debug/gcc\libsoc.a(cache_arm.o)
 .text.CacheDataInvalidateBuff
                0x00000000       0x38 E:/uC-Soft/TI/TIRTOS/PDK_AM~1/packages/ti/starterware/binary/soc/lib/am335x-evm/a8/debug/gcc\libsoc.a(cache_arm.o)
 .text.CacheDataCleanInvalidateBuff
                0x00000000       0x38 E:/uC-Soft/TI/TIRTOS/PDK_AM~1/packages/ti/starterware/binary/soc/lib/am335x-evm/a8/debug/gcc\libsoc.a(cache_arm.o)
 .text          0x00000000        0x0 E:/uC-Soft/TI/TIRTOS/PDK_AM~1/packages/ti/starterware/binary/soc/lib/am335x-evm/a8/debug/gcc\libsoc.a(mmu_arm.o)
 .data          0x00000000        0x0 E:/uC-Soft/TI/TIRTOS/PDK_AM~1/packages/ti/starterware/binary/soc/lib/am335x-evm/a8/debug/gcc\libsoc.a(mmu_arm.o)
 .bss           0x00000000        0x0 E:/uC-Soft/TI/TIRTOS/PDK_AM~1/packages/ti/starterware/binary/soc/lib/am335x-evm/a8/debug/gcc\libsoc.a(mmu_arm.o)
 .text.MMUDisable
                0x00000000       0x1c E:/uC-Soft/TI/TIRTOS/PDK_AM~1/packages/ti/starterware/binary/soc/lib/am335x-evm/a8/debug/gcc\libsoc.a(mmu_arm.o)
 .text          0x00000000        0x0 E:/uC-Soft/TI/TIRTOS/PDK_AM~1/packages/ti/starterware/binary/soc/lib/am335x-evm/a8/debug/gcc\libsoc.a(am335x_prcm.o)
 .data          0x00000000        0x0 E:/uC-Soft/TI/TIRTOS/PDK_AM~1/packages/ti/starterware/binary/soc/lib/am335x-evm/a8/debug/gcc\libsoc.a(am335x_prcm.o)
 .bss           0x00000000        0x0 E:/uC-Soft/TI/TIRTOS/PDK_AM~1/packages/ti/starterware/binary/soc/lib/am335x-evm/a8/debug/gcc\libsoc.a(am335x_prcm.o)
 .data          0x00000000        0x0 E:/uC-Soft/TI/TIRTOS/PDK_AM~1/packages/ti/starterware/binary/soc/lib/am335x-evm/a8/debug/gcc\libsoc.a(cp15.o)
 .bss           0x00000000        0x0 E:/uC-Soft/TI/TIRTOS/PDK_AM~1/packages/ti/starterware/binary/soc/lib/am335x-evm/a8/debug/gcc\libsoc.a(cp15.o)
 .data          0x00000000        0x0 E:/uC-Soft/TI/TIRTOS/PDK_AM~1/packages/ti/starterware/binary/soc/lib/am335x-evm/a8/debug/gcc\libsoc.a(exceptionhandler.o)
 .bss           0x00000000        0x0 E:/uC-Soft/TI/TIRTOS/PDK_AM~1/packages/ti/starterware/binary/soc/lib/am335x-evm/a8/debug/gcc\libsoc.a(exceptionhandler.o)
 .text          0x00000000        0x0 E:/uC-Soft/TI/TIRTOS/PDK_AM~1/packages/ti/starterware/binary/soc/lib/am335x-evm/a8/debug/gcc\libsoc.a(cpu.o)
 .data          0x00000000        0x0 E:/uC-Soft/TI/TIRTOS/PDK_AM~1/packages/ti/starterware/binary/soc/lib/am335x-evm/a8/debug/gcc\libsoc.a(cpu.o)
 .bss           0x00000000        0x0 E:/uC-Soft/TI/TIRTOS/PDK_AM~1/packages/ti/starterware/binary/soc/lib/am335x-evm/a8/debug/gcc\libsoc.a(cpu.o)
 .text.CPUSwitchToPrivilegedMode
                0x00000000       0x1c E:/uC-Soft/TI/TIRTOS/PDK_AM~1/packages/ti/starterware/binary/soc/lib/am335x-evm/a8/debug/gcc\libsoc.a(cpu.o)
 .text.CPUSwitchToUserMode
                0x00000000       0x28 E:/uC-Soft/TI/TIRTOS/PDK_AM~1/packages/ti/starterware/binary/soc/lib/am335x-evm/a8/debug/gcc\libsoc.a(cpu.o)
 .text.CPUAbortHandler
                0x00000000        0xc E:/uC-Soft/TI/TIRTOS/PDK_AM~1/packages/ti/starterware/binary/soc/lib/am335x-evm/a8/debug/gcc\libsoc.a(cpu.o)
 .text.CPUIntrStatus
                0x00000000       0x2c E:/uC-Soft/TI/TIRTOS/PDK_AM~1/packages/ti/starterware/binary/soc/lib/am335x-evm/a8/debug/gcc\libsoc.a(cpu.o)
 .text.CPUIntrDisable
                0x00000000       0x48 E:/uC-Soft/TI/TIRTOS/PDK_AM~1/packages/ti/starterware/binary/soc/lib/am335x-evm/a8/debug/gcc\libsoc.a(cpu.o)
 .text          0x00000000        0x0 E:/uC-Soft/TI/TIRTOS/PDK_AM~1/packages/ti/starterware/binary/dal/lib/am335x-evm/a8/debug/gcc\libdal.a(i2c.o)
 .data          0x00000000        0x0 E:/uC-Soft/TI/TIRTOS/PDK_AM~1/packages/ti/starterware/binary/dal/lib/am335x-evm/a8/debug/gcc\libdal.a(i2c.o)
 .bss           0x00000000        0x0 E:/uC-Soft/TI/TIRTOS/PDK_AM~1/packages/ti/starterware/binary/dal/lib/am335x-evm/a8/debug/gcc\libdal.a(i2c.o)
 .text.I2CBusBusyStatus
                0x00000000       0x58 E:/uC-Soft/TI/TIRTOS/PDK_AM~1/packages/ti/starterware/binary/dal/lib/am335x-evm/a8/debug/gcc\libdal.a(i2c.o)
 .text.I2CErrStatus
                0x00000000       0x50 E:/uC-Soft/TI/TIRTOS/PDK_AM~1/packages/ti/starterware/binary/dal/lib/am335x-evm/a8/debug/gcc\libdal.a(i2c.o)
 .text.I2CStartByteModeEnable
                0x00000000       0x90 E:/uC-Soft/TI/TIRTOS/PDK_AM~1/packages/ti/starterware/binary/dal/lib/am335x-evm/a8/debug/gcc\libdal.a(i2c.o)
 .text.I2CIntrEnable
                0x00000000       0x68 E:/uC-Soft/TI/TIRTOS/PDK_AM~1/packages/ti/starterware/binary/dal/lib/am335x-evm/a8/debug/gcc\libdal.a(i2c.o)
 .text.I2CIntrStatus
                0x00000000       0x38 E:/uC-Soft/TI/TIRTOS/PDK_AM~1/packages/ti/starterware/binary/dal/lib/am335x-evm/a8/debug/gcc\libdal.a(i2c.o)
 .text.I2CIntrTrigger
                0x00000000       0x3c E:/uC-Soft/TI/TIRTOS/PDK_AM~1/packages/ti/starterware/binary/dal/lib/am335x-evm/a8/debug/gcc\libdal.a(i2c.o)
 .text.I2CMasterGetSlaveAddr
                0x00000000       0x40 E:/uC-Soft/TI/TIRTOS/PDK_AM~1/packages/ti/starterware/binary/dal/lib/am335x-evm/a8/debug/gcc\libdal.a(i2c.o)
 .text.I2CDmaTxEventEnable
                0x00000000       0xb0 E:/uC-Soft/TI/TIRTOS/PDK_AM~1/packages/ti/starterware/binary/dal/lib/am335x-evm/a8/debug/gcc\libdal.a(i2c.o)
 .text.I2CDmaRxEventEnable
                0x00000000       0xb0 E:/uC-Soft/TI/TIRTOS/PDK_AM~1/packages/ti/starterware/binary/dal/lib/am335x-evm/a8/debug/gcc\libdal.a(i2c.o)
 .text.I2CSlaveGetActiveOwnAddr
                0x00000000       0x78 E:/uC-Soft/TI/TIRTOS/PDK_AM~1/packages/ti/starterware/binary/dal/lib/am335x-evm/a8/debug/gcc\libdal.a(i2c.o)
 .text.I2CSlaveSetOwnAddr
                0x00000000      0x21c E:/uC-Soft/TI/TIRTOS/PDK_AM~1/packages/ti/starterware/binary/dal/lib/am335x-evm/a8/debug/gcc\libdal.a(i2c.o)
 .text.I2CSlaveClockBlockingEnable
                0x00000000       0xd8 E:/uC-Soft/TI/TIRTOS/PDK_AM~1/packages/ti/starterware/binary/dal/lib/am335x-evm/a8/debug/gcc\libdal.a(i2c.o)
 .text.I2CIdleModeSelect
                0x00000000       0x40 E:/uC-Soft/TI/TIRTOS/PDK_AM~1/packages/ti/starterware/binary/dal/lib/am335x-evm/a8/debug/gcc\libdal.a(i2c.o)
 .text.I2CClockActivitySelect
                0x00000000       0x40 E:/uC-Soft/TI/TIRTOS/PDK_AM~1/packages/ti/starterware/binary/dal/lib/am335x-evm/a8/debug/gcc\libdal.a(i2c.o)
 .text.I2CWakeupEnable
                0x00000000      0x11c E:/uC-Soft/TI/TIRTOS/PDK_AM~1/packages/ti/starterware/binary/dal/lib/am335x-evm/a8/debug/gcc\libdal.a(i2c.o)
 .text.I2CWakeupDisable
                0x00000000      0x11c E:/uC-Soft/TI/TIRTOS/PDK_AM~1/packages/ti/starterware/binary/dal/lib/am335x-evm/a8/debug/gcc\libdal.a(i2c.o)
 .text.I2CFreeRunEnable
                0x00000000       0x70 E:/uC-Soft/TI/TIRTOS/PDK_AM~1/packages/ti/starterware/binary/dal/lib/am335x-evm/a8/debug/gcc\libdal.a(i2c.o)
 .text.I2CContextSave
                0x00000000       0xb0 E:/uC-Soft/TI/TIRTOS/PDK_AM~1/packages/ti/starterware/binary/dal/lib/am335x-evm/a8/debug/gcc\libdal.a(i2c.o)
 .text.I2CContextRestore
                0x00000000      0x16c E:/uC-Soft/TI/TIRTOS/PDK_AM~1/packages/ti/starterware/binary/dal/lib/am335x-evm/a8/debug/gcc\libdal.a(i2c.o)
 .text.I2CMasterBusy
                0x00000000       0x44 E:/uC-Soft/TI/TIRTOS/PDK_AM~1/packages/ti/starterware/binary/dal/lib/am335x-evm/a8/debug/gcc\libdal.a(i2c.o)
 .text          0x00000000        0x0 E:/uC-Soft/TI/TIRTOS/PDK_AM~1/packages/ti/starterware/binary/dal/lib/am335x-evm/a8/debug/gcc\libdal.a(uart.o)
 .data          0x00000000        0x0 E:/uC-Soft/TI/TIRTOS/PDK_AM~1/packages/ti/starterware/binary/dal/lib/am335x-evm/a8/debug/gcc\libdal.a(uart.o)
 .bss           0x00000000        0x0 E:/uC-Soft/TI/TIRTOS/PDK_AM~1/packages/ti/starterware/binary/dal/lib/am335x-evm/a8/debug/gcc\libdal.a(uart.o)
 .text.UARTGetRevision
                0x00000000       0x38 E:/uC-Soft/TI/TIRTOS/PDK_AM~1/packages/ti/starterware/binary/dal/lib/am335x-evm/a8/debug/gcc\libdal.a(uart.o)
 .text.UARTIsIntrPending
                0x00000000       0x94 E:/uC-Soft/TI/TIRTOS/PDK_AM~1/packages/ti/starterware/binary/dal/lib/am335x-evm/a8/debug/gcc\libdal.a(uart.o)
 .text.UARTTxEmptyIntrEnable
                0x00000000       0x70 E:/uC-Soft/TI/TIRTOS/PDK_AM~1/packages/ti/starterware/binary/dal/lib/am335x-evm/a8/debug/gcc\libdal.a(uart.o)
 .text.UARTLineStatus
                0x00000000       0x8c E:/uC-Soft/TI/TIRTOS/PDK_AM~1/packages/ti/starterware/binary/dal/lib/am335x-evm/a8/debug/gcc\libdal.a(uart.o)
 .text.UARTIsFifoEnabled
                0x00000000       0xa0 E:/uC-Soft/TI/TIRTOS/PDK_AM~1/packages/ti/starterware/binary/dal/lib/am335x-evm/a8/debug/gcc\libdal.a(uart.o)
 .text.UARTWakeupEventEnable
                0x00000000       0xc8 E:/uC-Soft/TI/TIRTOS/PDK_AM~1/packages/ti/starterware/binary/dal/lib/am335x-evm/a8/debug/gcc\libdal.a(uart.o)
 .text.UARTWakeupEventDisable
                0x00000000       0xd0 E:/uC-Soft/TI/TIRTOS/PDK_AM~1/packages/ti/starterware/binary/dal/lib/am335x-evm/a8/debug/gcc\libdal.a(uart.o)
 .text.UARTWakeupIntrEnable
                0x00000000       0x70 E:/uC-Soft/TI/TIRTOS/PDK_AM~1/packages/ti/starterware/binary/dal/lib/am335x-evm/a8/debug/gcc\libdal.a(uart.o)
 .text.UARTAutoIdleEnable
                0x00000000       0x70 E:/uC-Soft/TI/TIRTOS/PDK_AM~1/packages/ti/starterware/binary/dal/lib/am335x-evm/a8/debug/gcc\libdal.a(uart.o)
 .text.UARTSetIdleMode
                0x00000000       0x44 E:/uC-Soft/TI/TIRTOS/PDK_AM~1/packages/ti/starterware/binary/dal/lib/am335x-evm/a8/debug/gcc\libdal.a(uart.o)
 .text.UARTLoopbackEnable
                0x00000000       0x70 E:/uC-Soft/TI/TIRTOS/PDK_AM~1/packages/ti/starterware/binary/dal/lib/am335x-evm/a8/debug/gcc\libdal.a(uart.o)
 .text.UARTGetFifoLevel
                0x00000000       0x7c E:/uC-Soft/TI/TIRTOS/PDK_AM~1/packages/ti/starterware/binary/dal/lib/am335x-evm/a8/debug/gcc\libdal.a(uart.o)
 .text.UARTIsTxFifoFull
                0x00000000       0x5c E:/uC-Soft/TI/TIRTOS/PDK_AM~1/packages/ti/starterware/binary/dal/lib/am335x-evm/a8/debug/gcc\libdal.a(uart.o)
 .text.UARTIsCharAvail
                0x00000000       0xb0 E:/uC-Soft/TI/TIRTOS/PDK_AM~1/packages/ti/starterware/binary/dal/lib/am335x-evm/a8/debug/gcc\libdal.a(uart.o)
 .text.UARTFifoRead
                0x00000000       0x40 E:/uC-Soft/TI/TIRTOS/PDK_AM~1/packages/ti/starterware/binary/dal/lib/am335x-evm/a8/debug/gcc\libdal.a(uart.o)
 .text.UARTDmaEnable
                0x00000000       0x94 E:/uC-Soft/TI/TIRTOS/PDK_AM~1/packages/ti/starterware/binary/dal/lib/am335x-evm/a8/debug/gcc\libdal.a(uart.o)
 .text.UARTDmaDisable
                0x00000000       0x5c E:/uC-Soft/TI/TIRTOS/PDK_AM~1/packages/ti/starterware/binary/dal/lib/am335x-evm/a8/debug/gcc\libdal.a(uart.o)
 .text.UARTDmaTxThresholdEnable
                0x00000000       0x70 E:/uC-Soft/TI/TIRTOS/PDK_AM~1/packages/ti/starterware/binary/dal/lib/am335x-evm/a8/debug/gcc\libdal.a(uart.o)
 .text.UARTSetDmaTxThreshold
                0x00000000       0x40 E:/uC-Soft/TI/TIRTOS/PDK_AM~1/packages/ti/starterware/binary/dal/lib/am335x-evm/a8/debug/gcc\libdal.a(uart.o)
 .text.UARTDmaCounterResetEnable
                0x00000000       0x70 E:/uC-Soft/TI/TIRTOS/PDK_AM~1/packages/ti/starterware/binary/dal/lib/am335x-evm/a8/debug/gcc\libdal.a(uart.o)
 .text.UARTAutoRtsEnable
                0x00000000       0xb4 E:/uC-Soft/TI/TIRTOS/PDK_AM~1/packages/ti/starterware/binary/dal/lib/am335x-evm/a8/debug/gcc\libdal.a(uart.o)
 .text.UARTAutoCtsEnable
                0x00000000       0xb4 E:/uC-Soft/TI/TIRTOS/PDK_AM~1/packages/ti/starterware/binary/dal/lib/am335x-evm/a8/debug/gcc\libdal.a(uart.o)
 .text.UARTSetFlowCtrlTriggerLvl
                0x00000000      0x198 E:/uC-Soft/TI/TIRTOS/PDK_AM~1/packages/ti/starterware/binary/dal/lib/am335x-evm/a8/debug/gcc\libdal.a(uart.o)
 .text.UARTSwFlowCtrlConfig
                0x00000000       0x88 E:/uC-Soft/TI/TIRTOS/PDK_AM~1/packages/ti/starterware/binary/dal/lib/am335x-evm/a8/debug/gcc\libdal.a(uart.o)
 .text.UARTSetXon1Xoff1Char
                0x00000000      0x1c8 E:/uC-Soft/TI/TIRTOS/PDK_AM~1/packages/ti/starterware/binary/dal/lib/am335x-evm/a8/debug/gcc\libdal.a(uart.o)
 .text.UARTSetXon2Xoff2Char
                0x00000000      0x1c8 E:/uC-Soft/TI/TIRTOS/PDK_AM~1/packages/ti/starterware/binary/dal/lib/am335x-evm/a8/debug/gcc\libdal.a(uart.o)
 .text.UARTXonAnyFeatureEnable
                0x00000000      0x124 E:/uC-Soft/TI/TIRTOS/PDK_AM~1/packages/ti/starterware/binary/dal/lib/am335x-evm/a8/debug/gcc\libdal.a(uart.o)
 .text.UARTSpecialCharDetectEnable
                0x00000000       0xb4 E:/uC-Soft/TI/TIRTOS/PDK_AM~1/packages/ti/starterware/binary/dal/lib/am335x-evm/a8/debug/gcc\libdal.a(uart.o)
 .text.UARTPulseShapingEnable
                0x00000000       0x70 E:/uC-Soft/TI/TIRTOS/PDK_AM~1/packages/ti/starterware/binary/dal/lib/am335x-evm/a8/debug/gcc\libdal.a(uart.o)
 .text.UARTResumeOper
                0x00000000       0x34 E:/uC-Soft/TI/TIRTOS/PDK_AM~1/packages/ti/starterware/binary/dal/lib/am335x-evm/a8/debug/gcc\libdal.a(uart.o)
 .text.UARTModemCtrlEnable
                0x00000000      0x198 E:/uC-Soft/TI/TIRTOS/PDK_AM~1/packages/ti/starterware/binary/dal/lib/am335x-evm/a8/debug/gcc\libdal.a(uart.o)
 .text.UARTModemStatus
                0x00000000      0x124 E:/uC-Soft/TI/TIRTOS/PDK_AM~1/packages/ti/starterware/binary/dal/lib/am335x-evm/a8/debug/gcc\libdal.a(uart.o)
 .text.UARTDsrPinIntrEnable
                0x00000000       0x70 E:/uC-Soft/TI/TIRTOS/PDK_AM~1/packages/ti/starterware/binary/dal/lib/am335x-evm/a8/debug/gcc\libdal.a(uart.o)
 .text.UARTRxCtsDsrTransitionStatus
                0x00000000       0x6c E:/uC-Soft/TI/TIRTOS/PDK_AM~1/packages/ti/starterware/binary/dal/lib/am335x-evm/a8/debug/gcc\libdal.a(uart.o)
 .text.UARTEnableAutobaudMode
                0x00000000       0x70 E:/uC-Soft/TI/TIRTOS/PDK_AM~1/packages/ti/starterware/binary/dal/lib/am335x-evm/a8/debug/gcc\libdal.a(uart.o)
 .text.UARTGetAutoBaudParity
                0x00000000       0x94 E:/uC-Soft/TI/TIRTOS/PDK_AM~1/packages/ti/starterware/binary/dal/lib/am335x-evm/a8/debug/gcc\libdal.a(uart.o)
 .text.UARTGetAutoBaudWordLen
                0x00000000       0x94 E:/uC-Soft/TI/TIRTOS/PDK_AM~1/packages/ti/starterware/binary/dal/lib/am335x-evm/a8/debug/gcc\libdal.a(uart.o)
 .text.UARTGetAutoBaudSpeed
                0x00000000       0x94 E:/uC-Soft/TI/TIRTOS/PDK_AM~1/packages/ti/starterware/binary/dal/lib/am335x-evm/a8/debug/gcc\libdal.a(uart.o)
 .text.UARTSetScratchPadValue
                0x00000000      0x120 E:/uC-Soft/TI/TIRTOS/PDK_AM~1/packages/ti/starterware/binary/dal/lib/am335x-evm/a8/debug/gcc\libdal.a(uart.o)
 .text.UARTGetScratchPadValue
                0x00000000      0x12c E:/uC-Soft/TI/TIRTOS/PDK_AM~1/packages/ti/starterware/binary/dal/lib/am335x-evm/a8/debug/gcc\libdal.a(uart.o)
 .text.UARTSubConfigMSRSPRModeEn
                0x00000000      0x158 E:/uC-Soft/TI/TIRTOS/PDK_AM~1/packages/ti/starterware/binary/dal/lib/am335x-evm/a8/debug/gcc\libdal.a(uart.o)
 .text.UARTSubConfigTCRTLRModeEn
                0x00000000      0x160 E:/uC-Soft/TI/TIRTOS/PDK_AM~1/packages/ti/starterware/binary/dal/lib/am335x-evm/a8/debug/gcc\libdal.a(uart.o)
 .text.UARTSubConfigXOFFModeEn
                0x00000000      0x160 E:/uC-Soft/TI/TIRTOS/PDK_AM~1/packages/ti/starterware/binary/dal/lib/am335x-evm/a8/debug/gcc\libdal.a(uart.o)
 .text.UARTTCRTLRBitValRestore
                0x00000000      0x134 E:/uC-Soft/TI/TIRTOS/PDK_AM~1/packages/ti/starterware/binary/dal/lib/am335x-evm/a8/debug/gcc\libdal.a(uart.o)
 .text.UARTParityModeGet
                0x00000000       0x54 E:/uC-Soft/TI/TIRTOS/PDK_AM~1/packages/ti/starterware/binary/dal/lib/am335x-evm/a8/debug/gcc\libdal.a(uart.o)
 .text          0x00000000        0x0 E:/uC-Soft/TI/TIRTOS/PDK_AM~1/packages/ti/starterware/binary/dal/lib/am335x-evm/a8/debug/gcc\libdal.a(gpio.o)
 .data          0x00000000        0x0 E:/uC-Soft/TI/TIRTOS/PDK_AM~1/packages/ti/starterware/binary/dal/lib/am335x-evm/a8/debug/gcc\libdal.a(gpio.o)
 .bss           0x00000000        0x0 E:/uC-Soft/TI/TIRTOS/PDK_AM~1/packages/ti/starterware/binary/dal/lib/am335x-evm/a8/debug/gcc\libdal.a(gpio.o)
 .text.GPIOModuleReset
                0x00000000       0x68 E:/uC-Soft/TI/TIRTOS/PDK_AM~1/packages/ti/starterware/binary/dal/lib/am335x-evm/a8/debug/gcc\libdal.a(gpio.o)
 .text.GPIOPinRead
                0x00000000       0x4c E:/uC-Soft/TI/TIRTOS/PDK_AM~1/packages/ti/starterware/binary/dal/lib/am335x-evm/a8/debug/gcc\libdal.a(gpio.o)
 .text.GPIOMultiplePinsWrite
                0x00000000       0x5c E:/uC-Soft/TI/TIRTOS/PDK_AM~1/packages/ti/starterware/binary/dal/lib/am335x-evm/a8/debug/gcc\libdal.a(gpio.o)
 .text.GPIOMultiplePinsRead
                0x00000000       0x44 E:/uC-Soft/TI/TIRTOS/PDK_AM~1/packages/ti/starterware/binary/dal/lib/am335x-evm/a8/debug/gcc\libdal.a(gpio.o)
 .text.GPIOSetIntrType
                0x00000000      0x9c8 E:/uC-Soft/TI/TIRTOS/PDK_AM~1/packages/ti/starterware/binary/dal/lib/am335x-evm/a8/debug/gcc\libdal.a(gpio.o)
 .text.GPIOIntrEnable
                0x00000000       0x54 E:/uC-Soft/TI/TIRTOS/PDK_AM~1/packages/ti/starterware/binary/dal/lib/am335x-evm/a8/debug/gcc\libdal.a(gpio.o)
 .text.GPIOIntrDisable
                0x00000000       0x54 E:/uC-Soft/TI/TIRTOS/PDK_AM~1/packages/ti/starterware/binary/dal/lib/am335x-evm/a8/debug/gcc\libdal.a(gpio.o)
 .text.GPIOIntrStatus
                0x00000000       0x6c E:/uC-Soft/TI/TIRTOS/PDK_AM~1/packages/ti/starterware/binary/dal/lib/am335x-evm/a8/debug/gcc\libdal.a(gpio.o)
 .text.GPIOIntrClear
                0x00000000       0x54 E:/uC-Soft/TI/TIRTOS/PDK_AM~1/packages/ti/starterware/binary/dal/lib/am335x-evm/a8/debug/gcc\libdal.a(gpio.o)
 .text.GPIOIntrRawStatus
                0x00000000       0x6c E:/uC-Soft/TI/TIRTOS/PDK_AM~1/packages/ti/starterware/binary/dal/lib/am335x-evm/a8/debug/gcc\libdal.a(gpio.o)
 .text.GPIOIntrTrigger
                0x00000000       0x54 E:/uC-Soft/TI/TIRTOS/PDK_AM~1/packages/ti/starterware/binary/dal/lib/am335x-evm/a8/debug/gcc\libdal.a(gpio.o)
 .text.GPIOWakeupIntrEnable
                0x00000000       0xd4 E:/uC-Soft/TI/TIRTOS/PDK_AM~1/packages/ti/starterware/binary/dal/lib/am335x-evm/a8/debug/gcc\libdal.a(gpio.o)
 .text.GPIOWakeupIntrDisable
                0x00000000       0x90 E:/uC-Soft/TI/TIRTOS/PDK_AM~1/packages/ti/starterware/binary/dal/lib/am335x-evm/a8/debug/gcc\libdal.a(gpio.o)
 .text.GPIOGlobalWakeupEnable
                0x00000000       0x3c E:/uC-Soft/TI/TIRTOS/PDK_AM~1/packages/ti/starterware/binary/dal/lib/am335x-evm/a8/debug/gcc\libdal.a(gpio.o)
 .text.GPIOGlobalWakeupDisable
                0x00000000       0x3c E:/uC-Soft/TI/TIRTOS/PDK_AM~1/packages/ti/starterware/binary/dal/lib/am335x-evm/a8/debug/gcc\libdal.a(gpio.o)
 .text.GPIOAutoIdleModeEnable
                0x00000000       0x70 E:/uC-Soft/TI/TIRTOS/PDK_AM~1/packages/ti/starterware/binary/dal/lib/am335x-evm/a8/debug/gcc\libdal.a(gpio.o)
 .text.GPIOSetIdleMode
                0x00000000       0x40 E:/uC-Soft/TI/TIRTOS/PDK_AM~1/packages/ti/starterware/binary/dal/lib/am335x-evm/a8/debug/gcc\libdal.a(gpio.o)
 .text.GPIOSetGatingRatio
                0x00000000       0x40 E:/uC-Soft/TI/TIRTOS/PDK_AM~1/packages/ti/starterware/binary/dal/lib/am335x-evm/a8/debug/gcc\libdal.a(gpio.o)
 .text.GPIODebounceFuncEnable
                0x00000000       0xbc E:/uC-Soft/TI/TIRTOS/PDK_AM~1/packages/ti/starterware/binary/dal/lib/am335x-evm/a8/debug/gcc\libdal.a(gpio.o)
 .text.GPIOSetDebounceTime
                0x00000000       0x40 E:/uC-Soft/TI/TIRTOS/PDK_AM~1/packages/ti/starterware/binary/dal/lib/am335x-evm/a8/debug/gcc\libdal.a(gpio.o)
 .text.GPIOGetRevision
                0x00000000       0x30 E:/uC-Soft/TI/TIRTOS/PDK_AM~1/packages/ti/starterware/binary/dal/lib/am335x-evm/a8/debug/gcc\libdal.a(gpio.o)
 .text.GPIOContextSave
                0x00000000       0x8c E:/uC-Soft/TI/TIRTOS/PDK_AM~1/packages/ti/starterware/binary/dal/lib/am335x-evm/a8/debug/gcc\libdal.a(gpio.o)
 .text.GPIOContextRestore
                0x00000000       0x8c E:/uC-Soft/TI/TIRTOS/PDK_AM~1/packages/ti/starterware/binary/dal/lib/am335x-evm/a8/debug/gcc\libdal.a(gpio.o)
 .text.GPIOGetDirMode
                0x00000000       0x68 E:/uC-Soft/TI/TIRTOS/PDK_AM~1/packages/ti/starterware/binary/dal/lib/am335x-evm/a8/debug/gcc\libdal.a(gpio.o)
 .text.GPIOGetIntrType
                0x00000000      0x15c E:/uC-Soft/TI/TIRTOS/PDK_AM~1/packages/ti/starterware/binary/dal/lib/am335x-evm/a8/debug/gcc\libdal.a(gpio.o)
 .text          0x00000000        0x0 E:/uC-Soft/TI/TIRTOS/PDK_AM~1/packages/ti/starterware/binary/dal/lib/am335x-evm/a8/debug/gcc\libdal.a(edma.o)
 .data          0x00000000        0x0 E:/uC-Soft/TI/TIRTOS/PDK_AM~1/packages/ti/starterware/binary/dal/lib/am335x-evm/a8/debug/gcc\libdal.a(edma.o)
 .bss           0x00000000        0x0 E:/uC-Soft/TI/TIRTOS/PDK_AM~1/packages/ti/starterware/binary/dal/lib/am335x-evm/a8/debug/gcc\libdal.a(edma.o)
 .text.HW_RD_REG32
                0x00000000       0x34 E:/uC-Soft/TI/TIRTOS/PDK_AM~1/packages/ti/starterware/binary/dal/lib/am335x-evm/a8/debug/gcc\libdal.a(edma.o)
 .text.HW_WR_REG32
                0x00000000       0x34 E:/uC-Soft/TI/TIRTOS/PDK_AM~1/packages/ti/starterware/binary/dal/lib/am335x-evm/a8/debug/gcc\libdal.a(edma.o)
 .text.HW_WR_FIELD32_RAW
                0x00000000       0x7c E:/uC-Soft/TI/TIRTOS/PDK_AM~1/packages/ti/starterware/binary/dal/lib/am335x-evm/a8/debug/gcc\libdal.a(edma.o)
 .text.HW_RD_FIELD32_RAW
                0x00000000       0x54 E:/uC-Soft/TI/TIRTOS/PDK_AM~1/packages/ti/starterware/binary/dal/lib/am335x-evm/a8/debug/gcc\libdal.a(edma.o)
 .text.EDMAInit
                0x00000000      0x228 E:/uC-Soft/TI/TIRTOS/PDK_AM~1/packages/ti/starterware/binary/dal/lib/am335x-evm/a8/debug/gcc\libdal.a(edma.o)
 .text.EDMARegionReset
                0x00000000      0x4b4 E:/uC-Soft/TI/TIRTOS/PDK_AM~1/packages/ti/starterware/binary/dal/lib/am335x-evm/a8/debug/gcc\libdal.a(edma.o)
 .text.EDMAGetPeripheralId
                0x00000000       0x38 E:/uC-Soft/TI/TIRTOS/PDK_AM~1/packages/ti/starterware/binary/dal/lib/am335x-evm/a8/debug/gcc\libdal.a(edma.o)
 .text.EDMAIsMemProtectionSupported
                0x00000000       0x5c E:/uC-Soft/TI/TIRTOS/PDK_AM~1/packages/ti/starterware/binary/dal/lib/am335x-evm/a8/debug/gcc\libdal.a(edma.o)
 .text.EDMAIsChMapSupported
                0x00000000       0x5c E:/uC-Soft/TI/TIRTOS/PDK_AM~1/packages/ti/starterware/binary/dal/lib/am335x-evm/a8/debug/gcc\libdal.a(edma.o)
 .text.EDMAGetNumRegions
                0x00000000       0xa0 E:/uC-Soft/TI/TIRTOS/PDK_AM~1/packages/ti/starterware/binary/dal/lib/am335x-evm/a8/debug/gcc\libdal.a(edma.o)
 .text.EDMAGetNumQueues
                0x00000000       0x44 E:/uC-Soft/TI/TIRTOS/PDK_AM~1/packages/ti/starterware/binary/dal/lib/am335x-evm/a8/debug/gcc\libdal.a(edma.o)
 .text.EDMAGetNumParamSets
                0x00000000       0xc4 E:/uC-Soft/TI/TIRTOS/PDK_AM~1/packages/ti/starterware/binary/dal/lib/am335x-evm/a8/debug/gcc\libdal.a(edma.o)
 .text.EDMAGetNumIntrCh
                0x00000000       0x8c E:/uC-Soft/TI/TIRTOS/PDK_AM~1/packages/ti/starterware/binary/dal/lib/am335x-evm/a8/debug/gcc\libdal.a(edma.o)
 .text.EDMAGetNumQdmaCh
                0x00000000       0xb4 E:/uC-Soft/TI/TIRTOS/PDK_AM~1/packages/ti/starterware/binary/dal/lib/am335x-evm/a8/debug/gcc\libdal.a(edma.o)
 .text.EDMAGetNumDmaCh
                0x00000000       0xc4 E:/uC-Soft/TI/TIRTOS/PDK_AM~1/packages/ti/starterware/binary/dal/lib/am335x-evm/a8/debug/gcc\libdal.a(edma.o)
 .text.EDMAShdwRegionChEnable
                0x00000000      0x214 E:/uC-Soft/TI/TIRTOS/PDK_AM~1/packages/ti/starterware/binary/dal/lib/am335x-evm/a8/debug/gcc\libdal.a(edma.o)
 .text.EDMAShdwRegionChDisable
                0x00000000      0x220 E:/uC-Soft/TI/TIRTOS/PDK_AM~1/packages/ti/starterware/binary/dal/lib/am335x-evm/a8/debug/gcc\libdal.a(edma.o)
 .text.EDMAIsChInShdwRegion
                0x00000000      0x1ec E:/uC-Soft/TI/TIRTOS/PDK_AM~1/packages/ti/starterware/binary/dal/lib/am335x-evm/a8/debug/gcc\libdal.a(edma.o)
 .text.EDMAChToParamSetMap
                0x00000000      0x118 E:/uC-Soft/TI/TIRTOS/PDK_AM~1/packages/ti/starterware/binary/dal/lib/am335x-evm/a8/debug/gcc\libdal.a(edma.o)
 .text.EDMASetQdmaTriggerWord
                0x00000000       0x50 E:/uC-Soft/TI/TIRTOS/PDK_AM~1/packages/ti/starterware/binary/dal/lib/am335x-evm/a8/debug/gcc\libdal.a(edma.o)
 .text.EDMAChToEvtQueueMap
                0x00000000      0x3dc E:/uC-Soft/TI/TIRTOS/PDK_AM~1/packages/ti/starterware/binary/dal/lib/am335x-evm/a8/debug/gcc\libdal.a(edma.o)
 .text.EDMAChMissEvtClear
                0x00000000      0x3e4 E:/uC-Soft/TI/TIRTOS/PDK_AM~1/packages/ti/starterware/binary/dal/lib/am335x-evm/a8/debug/gcc\libdal.a(edma.o)
 .text.EDMAEvtMissStatus
                0x00000000       0xb0 E:/uC-Soft/TI/TIRTOS/PDK_AM~1/packages/ti/starterware/binary/dal/lib/am335x-evm/a8/debug/gcc\libdal.a(edma.o)
 .text.EDMAComplCodeErrClear
                0x00000000       0x3c E:/uC-Soft/TI/TIRTOS/PDK_AM~1/packages/ti/starterware/binary/dal/lib/am335x-evm/a8/debug/gcc\libdal.a(edma.o)
 .text.EDMAQueueThresholdErrClear
                0x00000000       0xe0 E:/uC-Soft/TI/TIRTOS/PDK_AM~1/packages/ti/starterware/binary/dal/lib/am335x-evm/a8/debug/gcc\libdal.a(edma.o)
 .text.EDMAComplCodeErrStatus
                0x00000000       0x68 E:/uC-Soft/TI/TIRTOS/PDK_AM~1/packages/ti/starterware/binary/dal/lib/am335x-evm/a8/debug/gcc\libdal.a(edma.o)
 .text.EDMAQueueThresholdErrStatus
                0x00000000       0xe4 E:/uC-Soft/TI/TIRTOS/PDK_AM~1/packages/ti/starterware/binary/dal/lib/am335x-evm/a8/debug/gcc\libdal.a(edma.o)
 .text.EDMASetEvt
                0x00000000      0x1cc E:/uC-Soft/TI/TIRTOS/PDK_AM~1/packages/ti/starterware/binary/dal/lib/am335x-evm/a8/debug/gcc\libdal.a(edma.o)
 .text.EDMAEvtClear
                0x00000000      0x1cc E:/uC-Soft/TI/TIRTOS/PDK_AM~1/packages/ti/starterware/binary/dal/lib/am335x-evm/a8/debug/gcc\libdal.a(edma.o)
 .text.EDMAEvtStatus
                0x00000000      0x20c E:/uC-Soft/TI/TIRTOS/PDK_AM~1/packages/ti/starterware/binary/dal/lib/am335x-evm/a8/debug/gcc\libdal.a(edma.o)
 .text.EDMAEvtEnable
                0x00000000      0x2c0 E:/uC-Soft/TI/TIRTOS/PDK_AM~1/packages/ti/starterware/binary/dal/lib/am335x-evm/a8/debug/gcc\libdal.a(edma.o)
 .text.EDMAEvtDisable
                0x00000000      0x2c0 E:/uC-Soft/TI/TIRTOS/PDK_AM~1/packages/ti/starterware/binary/dal/lib/am335x-evm/a8/debug/gcc\libdal.a(edma.o)
 .text.EDMAIntrEnable
                0x00000000      0x1cc E:/uC-Soft/TI/TIRTOS/PDK_AM~1/packages/ti/starterware/binary/dal/lib/am335x-evm/a8/debug/gcc\libdal.a(edma.o)
 .text.EDMAIntrDisable
                0x00000000      0x1cc E:/uC-Soft/TI/TIRTOS/PDK_AM~1/packages/ti/starterware/binary/dal/lib/am335x-evm/a8/debug/gcc\libdal.a(edma.o)
 .text.EDMAIntrStatus
                0x00000000      0x134 E:/uC-Soft/TI/TIRTOS/PDK_AM~1/packages/ti/starterware/binary/dal/lib/am335x-evm/a8/debug/gcc\libdal.a(edma.o)
 .text.EDMAIntrClear
                0x00000000      0x1cc E:/uC-Soft/TI/TIRTOS/PDK_AM~1/packages/ti/starterware/binary/dal/lib/am335x-evm/a8/debug/gcc\libdal.a(edma.o)
 .text.EDMASetParamEntry
                0x00000000      0x1f4 E:/uC-Soft/TI/TIRTOS/PDK_AM~1/packages/ti/starterware/binary/dal/lib/am335x-evm/a8/debug/gcc\libdal.a(edma.o)
 .text.EDMAGetParamEntry
                0x00000000      0x1f4 E:/uC-Soft/TI/TIRTOS/PDK_AM~1/packages/ti/starterware/binary/dal/lib/am335x-evm/a8/debug/gcc\libdal.a(edma.o)
 .text.EDMAParamReset
                0x00000000      0x1e0 E:/uC-Soft/TI/TIRTOS/PDK_AM~1/packages/ti/starterware/binary/dal/lib/am335x-evm/a8/debug/gcc\libdal.a(edma.o)
 .text.EDMASetParamDummy
                0x00000000      0x210 E:/uC-Soft/TI/TIRTOS/PDK_AM~1/packages/ti/starterware/binary/dal/lib/am335x-evm/a8/debug/gcc\libdal.a(edma.o)
 .text.EDMAParamConfig
                0x00000000      0x5e0 E:/uC-Soft/TI/TIRTOS/PDK_AM~1/packages/ti/starterware/binary/dal/lib/am335x-evm/a8/debug/gcc\libdal.a(edma.o)
 .text.EDMAParamXferConfig
                0x00000000      0x550 E:/uC-Soft/TI/TIRTOS/PDK_AM~1/packages/ti/starterware/binary/dal/lib/am335x-evm/a8/debug/gcc\libdal.a(edma.o)
 .text.EDMAParamLinkConfig
                0x00000000      0x184 E:/uC-Soft/TI/TIRTOS/PDK_AM~1/packages/ti/starterware/binary/dal/lib/am335x-evm/a8/debug/gcc\libdal.a(edma.o)
 .text.EDMAParamChainConfig
                0x00000000      0x25c E:/uC-Soft/TI/TIRTOS/PDK_AM~1/packages/ti/starterware/binary/dal/lib/am335x-evm/a8/debug/gcc\libdal.a(edma.o)
 .text.EDMAParamIntrConfig
                0x00000000      0x214 E:/uC-Soft/TI/TIRTOS/PDK_AM~1/packages/ti/starterware/binary/dal/lib/am335x-evm/a8/debug/gcc\libdal.a(edma.o)
 .text.EDMAGetParamConfig
                0x00000000      0x454 E:/uC-Soft/TI/TIRTOS/PDK_AM~1/packages/ti/starterware/binary/dal/lib/am335x-evm/a8/debug/gcc\libdal.a(edma.o)
 .text.EDMAChConfig
                0x00000000      0x25c E:/uC-Soft/TI/TIRTOS/PDK_AM~1/packages/ti/starterware/binary/dal/lib/am335x-evm/a8/debug/gcc\libdal.a(edma.o)
 .text.EDMAChReset
                0x00000000      0x1b4 E:/uC-Soft/TI/TIRTOS/PDK_AM~1/packages/ti/starterware/binary/dal/lib/am335x-evm/a8/debug/gcc\libdal.a(edma.o)
 .text.EDMATransferStart
                0x00000000      0x174 E:/uC-Soft/TI/TIRTOS/PDK_AM~1/packages/ti/starterware/binary/dal/lib/am335x-evm/a8/debug/gcc\libdal.a(edma.o)
 .text.EDMATransferStop
                0x00000000      0x184 E:/uC-Soft/TI/TIRTOS/PDK_AM~1/packages/ti/starterware/binary/dal/lib/am335x-evm/a8/debug/gcc\libdal.a(edma.o)
 .debug_info    0x00000000     0x290d E:/uC-Soft/TI/TIRTOS/PDK_AM~1/packages/ti/starterware/binary/dal/lib/am335x-evm/a8/debug/gcc\libdal.a(edma.o)
 .debug_abbrev  0x00000000      0x28e E:/uC-Soft/TI/TIRTOS/PDK_AM~1/packages/ti/starterware/binary/dal/lib/am335x-evm/a8/debug/gcc\libdal.a(edma.o)
 .debug_aranges
                0x00000000      0x1a8 E:/uC-Soft/TI/TIRTOS/PDK_AM~1/packages/ti/starterware/binary/dal/lib/am335x-evm/a8/debug/gcc\libdal.a(edma.o)
 .debug_ranges  0x00000000      0x198 E:/uC-Soft/TI/TIRTOS/PDK_AM~1/packages/ti/starterware/binary/dal/lib/am335x-evm/a8/debug/gcc\libdal.a(edma.o)
 .debug_line    0x00000000      0xabe E:/uC-Soft/TI/TIRTOS/PDK_AM~1/packages/ti/starterware/binary/dal/lib/am335x-evm/a8/debug/gcc\libdal.a(edma.o)
 .debug_str     0x00000000      0xec4 E:/uC-Soft/TI/TIRTOS/PDK_AM~1/packages/ti/starterware/binary/dal/lib/am335x-evm/a8/debug/gcc\libdal.a(edma.o)
 .comment       0x00000000       0x80 E:/uC-Soft/TI/TIRTOS/PDK_AM~1/packages/ti/starterware/binary/dal/lib/am335x-evm/a8/debug/gcc\libdal.a(edma.o)
 .debug_frame   0x00000000      0x6b0 E:/uC-Soft/TI/TIRTOS/PDK_AM~1/packages/ti/starterware/binary/dal/lib/am335x-evm/a8/debug/gcc\libdal.a(edma.o)
 .ARM.attributes
                0x00000000       0x3d E:/uC-Soft/TI/TIRTOS/PDK_AM~1/packages/ti/starterware/binary/dal/lib/am335x-evm/a8/debug/gcc\libdal.a(edma.o)
 .text          0x00000000        0x0 E:/uC-Soft/TI/TIRTOS/PDK_AM~1/packages/ti/starterware/binary/dal/lib/am335x-evm/a8/debug/gcc\libdal.a(dmtimer.o)
 .data          0x00000000        0x0 E:/uC-Soft/TI/TIRTOS/PDK_AM~1/packages/ti/starterware/binary/dal/lib/am335x-evm/a8/debug/gcc\libdal.a(dmtimer.o)
 .bss           0x00000000        0x0 E:/uC-Soft/TI/TIRTOS/PDK_AM~1/packages/ti/starterware/binary/dal/lib/am335x-evm/a8/debug/gcc\libdal.a(dmtimer.o)
 .text.HW_WR_REG32
                0x00000000       0x34 E:/uC-Soft/TI/TIRTOS/PDK_AM~1/packages/ti/starterware/binary/dal/lib/am335x-evm/a8/debug/gcc\libdal.a(dmtimer.o)
 .text.HW_WR_FIELD32_RAW
                0x00000000       0x7c E:/uC-Soft/TI/TIRTOS/PDK_AM~1/packages/ti/starterware/binary/dal/lib/am335x-evm/a8/debug/gcc\libdal.a(dmtimer.o)
 .text.DMTIMEREnable
                0x00000000       0xbc E:/uC-Soft/TI/TIRTOS/PDK_AM~1/packages/ti/starterware/binary/dal/lib/am335x-evm/a8/debug/gcc\libdal.a(dmtimer.o)
 .text.DMTIMERSetMode
                0x00000000      0x1d8 E:/uC-Soft/TI/TIRTOS/PDK_AM~1/packages/ti/starterware/binary/dal/lib/am335x-evm/a8/debug/gcc\libdal.a(dmtimer.o)
 .text.DMTIMERPrescalerClkEnable
                0x00000000      0x15c E:/uC-Soft/TI/TIRTOS/PDK_AM~1/packages/ti/starterware/binary/dal/lib/am335x-evm/a8/debug/gcc\libdal.a(dmtimer.o)
 .text.DMTIMERPrescalerClkDisable
                0x00000000       0x88 E:/uC-Soft/TI/TIRTOS/PDK_AM~1/packages/ti/starterware/binary/dal/lib/am335x-evm/a8/debug/gcc\libdal.a(dmtimer.o)
 .text.DMTIMERSetCounterVal
                0x00000000       0x88 E:/uC-Soft/TI/TIRTOS/PDK_AM~1/packages/ti/starterware/binary/dal/lib/am335x-evm/a8/debug/gcc\libdal.a(dmtimer.o)
 .text.DMTIMERLoadReloadCount
                0x00000000       0x88 E:/uC-Soft/TI/TIRTOS/PDK_AM~1/packages/ti/starterware/binary/dal/lib/am335x-evm/a8/debug/gcc\libdal.a(dmtimer.o)
 .text.DMTIMERGetReloadCount
                0x00000000       0x38 E:/uC-Soft/TI/TIRTOS/PDK_AM~1/packages/ti/starterware/binary/dal/lib/am335x-evm/a8/debug/gcc\libdal.a(dmtimer.o)
 .text.DMTIMERGpoConfig
                0x00000000       0xf8 E:/uC-Soft/TI/TIRTOS/PDK_AM~1/packages/ti/starterware/binary/dal/lib/am335x-evm/a8/debug/gcc\libdal.a(dmtimer.o)
 .text.DMTIMERSetCompareVal
                0x00000000       0x88 E:/uC-Soft/TI/TIRTOS/PDK_AM~1/packages/ti/starterware/binary/dal/lib/am335x-evm/a8/debug/gcc\libdal.a(dmtimer.o)
 .text.DMTIMERGetCompareVal
                0x00000000       0x38 E:/uC-Soft/TI/TIRTOS/PDK_AM~1/packages/ti/starterware/binary/dal/lib/am335x-evm/a8/debug/gcc\libdal.a(dmtimer.o)
 .text.DMTIMERIntrTrigger
                0x00000000       0x44 E:/uC-Soft/TI/TIRTOS/PDK_AM~1/packages/ti/starterware/binary/dal/lib/am335x-evm/a8/debug/gcc\libdal.a(dmtimer.o)
 .text.DMTIMERIntrRawStatus
                0x00000000       0x38 E:/uC-Soft/TI/TIRTOS/PDK_AM~1/packages/ti/starterware/binary/dal/lib/am335x-evm/a8/debug/gcc\libdal.a(dmtimer.o)
 .text.DMTIMERIntrStatus
                0x00000000       0x38 E:/uC-Soft/TI/TIRTOS/PDK_AM~1/packages/ti/starterware/binary/dal/lib/am335x-evm/a8/debug/gcc\libdal.a(dmtimer.o)
 .text.DMTIMERIntrClear
                0x00000000       0x44 E:/uC-Soft/TI/TIRTOS/PDK_AM~1/packages/ti/starterware/binary/dal/lib/am335x-evm/a8/debug/gcc\libdal.a(dmtimer.o)
 .text.DMTIMERIntrEnable
                0x00000000       0x44 E:/uC-Soft/TI/TIRTOS/PDK_AM~1/packages/ti/starterware/binary/dal/lib/am335x-evm/a8/debug/gcc\libdal.a(dmtimer.o)
 .text.DMTIMERIntrDisable
                0x00000000       0x44 E:/uC-Soft/TI/TIRTOS/PDK_AM~1/packages/ti/starterware/binary/dal/lib/am335x-evm/a8/debug/gcc\libdal.a(dmtimer.o)
 .text.DMTIMERTriggerTcrrWrite
                0x00000000       0x84 E:/uC-Soft/TI/TIRTOS/PDK_AM~1/packages/ti/starterware/binary/dal/lib/am335x-evm/a8/debug/gcc\libdal.a(dmtimer.o)
 .text.DMTIMERGetIntrEnableStatus
                0x00000000       0x38 E:/uC-Soft/TI/TIRTOS/PDK_AM~1/packages/ti/starterware/binary/dal/lib/am335x-evm/a8/debug/gcc\libdal.a(dmtimer.o)
 .text.DMTIMERResetEnable
                0x00000000       0x60 E:/uC-Soft/TI/TIRTOS/PDK_AM~1/packages/ti/starterware/binary/dal/lib/am335x-evm/a8/debug/gcc\libdal.a(dmtimer.o)
 .text.DMTIMERReset
                0x00000000       0x68 E:/uC-Soft/TI/TIRTOS/PDK_AM~1/packages/ti/starterware/binary/dal/lib/am335x-evm/a8/debug/gcc\libdal.a(dmtimer.o)
 .text.DMTIMERContextSave
                0x00000000      0x120 E:/uC-Soft/TI/TIRTOS/PDK_AM~1/packages/ti/starterware/binary/dal/lib/am335x-evm/a8/debug/gcc\libdal.a(dmtimer.o)
 .text.DMTIMERContextRestore
                0x00000000      0x204 E:/uC-Soft/TI/TIRTOS/PDK_AM~1/packages/ti/starterware/binary/dal/lib/am335x-evm/a8/debug/gcc\libdal.a(dmtimer.o)
 .text.DMTIMERPostedModeEnable
                0x00000000       0x90 E:/uC-Soft/TI/TIRTOS/PDK_AM~1/packages/ti/starterware/binary/dal/lib/am335x-evm/a8/debug/gcc\libdal.a(dmtimer.o)
 .data          0x00000000        0x0 e:/uc-soft/ti/tirtos/gcc-arm-none-eabi-6-2017-q1-update/bin/../lib/gcc/arm-none-eabi/6.3.1/hard\libgcc.a(_udivsi3.o)
 .bss           0x00000000        0x0 e:/uc-soft/ti/tirtos/gcc-arm-none-eabi-6-2017-q1-update/bin/../lib/gcc/arm-none-eabi/6.3.1/hard\libgcc.a(_udivsi3.o)
 .data          0x00000000        0x0 e:/uc-soft/ti/tirtos/gcc-arm-none-eabi-6-2017-q1-update/bin/../lib/gcc/arm-none-eabi/6.3.1/hard\libgcc.a(_divsi3.o)
 .bss           0x00000000        0x0 e:/uc-soft/ti/tirtos/gcc-arm-none-eabi-6-2017-q1-update/bin/../lib/gcc/arm-none-eabi/6.3.1/hard\libgcc.a(_divsi3.o)
 .data          0x00000000        0x0 e:/uc-soft/ti/tirtos/gcc-arm-none-eabi-6-2017-q1-update/bin/../lib/gcc/arm-none-eabi/6.3.1/hard\libgcc.a(_dvmd_tls.o)
 .bss           0x00000000        0x0 e:/uc-soft/ti/tirtos/gcc-arm-none-eabi-6-2017-q1-update/bin/../lib/gcc/arm-none-eabi/6.3.1/hard\libgcc.a(_dvmd_tls.o)
 .data          0x00000000        0x0 e:/uc-soft/ti/tirtos/gcc-arm-none-eabi-6-2017-q1-update/bin/../lib/gcc/arm-none-eabi/6.3.1/hard\libgcc.a(_arm_addsubsf3.o)
 .bss           0x00000000        0x0 e:/uc-soft/ti/tirtos/gcc-arm-none-eabi-6-2017-q1-update/bin/../lib/gcc/arm-none-eabi/6.3.1/hard\libgcc.a(_arm_addsubsf3.o)
 .data          0x00000000        0x0 e:/uc-soft/ti/tirtos/gcc-arm-none-eabi-6-2017-q1-update/bin/../lib/gcc/arm-none-eabi/6.3.1/hard\libgcc.a(_aeabi_uldivmod.o)
 .bss           0x00000000        0x0 e:/uc-soft/ti/tirtos/gcc-arm-none-eabi-6-2017-q1-update/bin/../lib/gcc/arm-none-eabi/6.3.1/hard\libgcc.a(_aeabi_uldivmod.o)
 .data          0x00000000        0x0 e:/uc-soft/ti/tirtos/gcc-arm-none-eabi-6-2017-q1-update/bin/../lib/gcc/arm-none-eabi/6.3.1/hard\libgcc.a(_fixunssfdi.o)
 .bss           0x00000000        0x0 e:/uc-soft/ti/tirtos/gcc-arm-none-eabi-6-2017-q1-update/bin/../lib/gcc/arm-none-eabi/6.3.1/hard\libgcc.a(_fixunssfdi.o)
 .data          0x00000000        0x0 e:/uc-soft/ti/tirtos/gcc-arm-none-eabi-6-2017-q1-update/bin/../lib/gcc/arm-none-eabi/6.3.1/hard\libgcc.a(_fixunsdfdi.o)
 .bss           0x00000000        0x0 e:/uc-soft/ti/tirtos/gcc-arm-none-eabi-6-2017-q1-update/bin/../lib/gcc/arm-none-eabi/6.3.1/hard\libgcc.a(_fixunsdfdi.o)
 .data          0x00000000        0x0 e:/uc-soft/ti/tirtos/gcc-arm-none-eabi-6-2017-q1-update/bin/../lib/gcc/arm-none-eabi/6.3.1/hard\libgcc.a(_udivmoddi4.o)
 .bss           0x00000000        0x0 e:/uc-soft/ti/tirtos/gcc-arm-none-eabi-6-2017-q1-update/bin/../lib/gcc/arm-none-eabi/6.3.1/hard\libgcc.a(_udivmoddi4.o)
 .ARM.extab     0x00000000        0x0 e:/uc-soft/ti/tirtos/gcc-arm-none-eabi-6-2017-q1-update/bin/../lib/gcc/arm-none-eabi/6.3.1/hard\libgcc.a(_udivmoddi4.o)
 .data          0x00000000        0x0 e:/uc-soft/ti/tirtos/gcc-arm-none-eabi-6-2017-q1-update/bin/../lib/gcc/arm-none-eabi/6.3.1/hard\libgcc.a(_clzdi2.o)
 .bss           0x00000000        0x0 e:/uc-soft/ti/tirtos/gcc-arm-none-eabi-6-2017-q1-update/bin/../lib/gcc/arm-none-eabi/6.3.1/hard\libgcc.a(_clzdi2.o)
 .data          0x00000000        0x0 e:/uc-soft/ti/tirtos/gcc-arm-none-eabi-6-2017-q1-update/bin/../lib/gcc/arm-none-eabi/6.3.1/hard\libgcc.a(_clzsi2.o)
 .bss           0x00000000        0x0 e:/uc-soft/ti/tirtos/gcc-arm-none-eabi-6-2017-q1-update/bin/../lib/gcc/arm-none-eabi/6.3.1/hard\libgcc.a(_clzsi2.o)
 .text          0x00000000        0x0 E:/uC-Soft/TI/TIRTOS/gcc-arm-none-eabi-6-2017-q1-update/arm-none-eabi/lib/hard\libc_nano.a(lib_a-exit.o)
 .data          0x00000000        0x0 E:/uC-Soft/TI/TIRTOS/gcc-arm-none-eabi-6-2017-q1-update/arm-none-eabi/lib/hard\libc_nano.a(lib_a-exit.o)
 .bss           0x00000000        0x0 E:/uC-Soft/TI/TIRTOS/gcc-arm-none-eabi-6-2017-q1-update/arm-none-eabi/lib/hard\libc_nano.a(lib_a-exit.o)
 .text.exit     0x00000000       0x40 E:/uC-Soft/TI/TIRTOS/gcc-arm-none-eabi-6-2017-q1-update/arm-none-eabi/lib/hard\libc_nano.a(lib_a-exit.o)
 .debug_frame   0x00000000       0x28 E:/uC-Soft/TI/TIRTOS/gcc-arm-none-eabi-6-2017-q1-update/arm-none-eabi/lib/hard\libc_nano.a(lib_a-exit.o)
 .ARM.attributes
                0x00000000       0x34 E:/uC-Soft/TI/TIRTOS/gcc-arm-none-eabi-6-2017-q1-update/arm-none-eabi/lib/hard\libc_nano.a(lib_a-exit.o)
 .text          0x00000000        0x0 E:/uC-Soft/TI/TIRTOS/gcc-arm-none-eabi-6-2017-q1-update/arm-none-eabi/lib/hard\libc_nano.a(lib_a-impure.o)
 .data          0x00000000        0x0 E:/uC-Soft/TI/TIRTOS/gcc-arm-none-eabi-6-2017-q1-update/arm-none-eabi/lib/hard\libc_nano.a(lib_a-impure.o)
 .bss           0x00000000        0x0 E:/uC-Soft/TI/TIRTOS/gcc-arm-none-eabi-6-2017-q1-update/arm-none-eabi/lib/hard\libc_nano.a(lib_a-impure.o)
 .data._impure_ptr
                0x00000000        0x4 E:/uC-Soft/TI/TIRTOS/gcc-arm-none-eabi-6-2017-q1-update/arm-none-eabi/lib/hard\libc_nano.a(lib_a-impure.o)
 .data.impure_data
                0x00000000       0x60 E:/uC-Soft/TI/TIRTOS/gcc-arm-none-eabi-6-2017-q1-update/arm-none-eabi/lib/hard\libc_nano.a(lib_a-impure.o)
 .rodata._global_impure_ptr
                0x00000000        0x4 E:/uC-Soft/TI/TIRTOS/gcc-arm-none-eabi-6-2017-q1-update/arm-none-eabi/lib/hard\libc_nano.a(lib_a-impure.o)
 .ARM.attributes
                0x00000000       0x32 E:/uC-Soft/TI/TIRTOS/gcc-arm-none-eabi-6-2017-q1-update/arm-none-eabi/lib/hard\libc_nano.a(lib_a-impure.o)
 .text          0x00000000        0x0 E:/uC-Soft/TI/TIRTOS/gcc-arm-none-eabi-6-2017-q1-update/arm-none-eabi/lib/hard\libc_nano.a(lib_a-init.o)
 .data          0x00000000        0x0 E:/uC-Soft/TI/TIRTOS/gcc-arm-none-eabi-6-2017-q1-update/arm-none-eabi/lib/hard\libc_nano.a(lib_a-init.o)
 .bss           0x00000000        0x0 E:/uC-Soft/TI/TIRTOS/gcc-arm-none-eabi-6-2017-q1-update/arm-none-eabi/lib/hard\libc_nano.a(lib_a-init.o)
 .text.__libc_init_array
                0x00000000       0x88 E:/uC-Soft/TI/TIRTOS/gcc-arm-none-eabi-6-2017-q1-update/arm-none-eabi/lib/hard\libc_nano.a(lib_a-init.o)
 .debug_frame   0x00000000       0x38 E:/uC-Soft/TI/TIRTOS/gcc-arm-none-eabi-6-2017-q1-update/arm-none-eabi/lib/hard\libc_nano.a(lib_a-init.o)
 .ARM.attributes
                0x00000000       0x34 E:/uC-Soft/TI/TIRTOS/gcc-arm-none-eabi-6-2017-q1-update/arm-none-eabi/lib/hard\libc_nano.a(lib_a-init.o)
 .text          0x00000000        0x0 E:/uC-Soft/TI/TIRTOS/gcc-arm-none-eabi-6-2017-q1-update/arm-none-eabi/lib/hard\libc_nano.a(lib_a-memcpy-stub.o)
 .data          0x00000000        0x0 E:/uC-Soft/TI/TIRTOS/gcc-arm-none-eabi-6-2017-q1-update/arm-none-eabi/lib/hard\libc_nano.a(lib_a-memcpy-stub.o)
 .bss           0x00000000        0x0 E:/uC-Soft/TI/TIRTOS/gcc-arm-none-eabi-6-2017-q1-update/arm-none-eabi/lib/hard\libc_nano.a(lib_a-memcpy-stub.o)
 .text          0x00000000        0x0 E:/uC-Soft/TI/TIRTOS/gcc-arm-none-eabi-6-2017-q1-update/arm-none-eabi/lib/hard\libc_nano.a(lib_a-memset.o)
 .data          0x00000000        0x0 E:/uC-Soft/TI/TIRTOS/gcc-arm-none-eabi-6-2017-q1-update/arm-none-eabi/lib/hard\libc_nano.a(lib_a-memset.o)
 .bss           0x00000000        0x0 E:/uC-Soft/TI/TIRTOS/gcc-arm-none-eabi-6-2017-q1-update/arm-none-eabi/lib/hard\libc_nano.a(lib_a-memset.o)
 .text          0x00000000        0x0 E:/uC-Soft/TI/TIRTOS/gcc-arm-none-eabi-6-2017-q1-update/arm-none-eabi/lib/hard\libc_nano.a(lib_a-strncmp.o)
 .data          0x00000000        0x0 E:/uC-Soft/TI/TIRTOS/gcc-arm-none-eabi-6-2017-q1-update/arm-none-eabi/lib/hard\libc_nano.a(lib_a-strncmp.o)
 .bss           0x00000000        0x0 E:/uC-Soft/TI/TIRTOS/gcc-arm-none-eabi-6-2017-q1-update/arm-none-eabi/lib/hard\libc_nano.a(lib_a-strncmp.o)
 .text          0x00000000        0x0 E:/uC-Soft/TI/TIRTOS/gcc-arm-none-eabi-6-2017-q1-update/arm-none-eabi/lib/hard\librdimon_nano.a(rdimon-_exit.o)
 .data          0x00000000        0x0 E:/uC-Soft/TI/TIRTOS/gcc-arm-none-eabi-6-2017-q1-update/arm-none-eabi/lib/hard\librdimon_nano.a(rdimon-_exit.o)
 .bss           0x00000000        0x0 E:/uC-Soft/TI/TIRTOS/gcc-arm-none-eabi-6-2017-q1-update/arm-none-eabi/lib/hard\librdimon_nano.a(rdimon-_exit.o)
 .text._exit    0x00000000       0x14 E:/uC-Soft/TI/TIRTOS/gcc-arm-none-eabi-6-2017-q1-update/arm-none-eabi/lib/hard\librdimon_nano.a(rdimon-_exit.o)
 .debug_frame   0x00000000       0x2c E:/uC-Soft/TI/TIRTOS/gcc-arm-none-eabi-6-2017-q1-update/arm-none-eabi/lib/hard\librdimon_nano.a(rdimon-_exit.o)
 .ARM.attributes
                0x00000000       0x34 E:/uC-Soft/TI/TIRTOS/gcc-arm-none-eabi-6-2017-q1-update/arm-none-eabi/lib/hard\librdimon_nano.a(rdimon-_exit.o)
 .text          0x00000000        0x0 E:/uC-Soft/TI/TIRTOS/gcc-arm-none-eabi-6-2017-q1-update/arm-none-eabi/lib/hard\librdimon_nano.a(rdimon-_kill.o)
 .data          0x00000000        0x0 E:/uC-Soft/TI/TIRTOS/gcc-arm-none-eabi-6-2017-q1-update/arm-none-eabi/lib/hard\librdimon_nano.a(rdimon-_kill.o)
 .bss           0x00000000        0x0 E:/uC-Soft/TI/TIRTOS/gcc-arm-none-eabi-6-2017-q1-update/arm-none-eabi/lib/hard\librdimon_nano.a(rdimon-_kill.o)
 .text._kill    0x00000000       0x38 E:/uC-Soft/TI/TIRTOS/gcc-arm-none-eabi-6-2017-q1-update/arm-none-eabi/lib/hard\librdimon_nano.a(rdimon-_kill.o)
 .debug_frame   0x00000000       0x30 E:/uC-Soft/TI/TIRTOS/gcc-arm-none-eabi-6-2017-q1-update/arm-none-eabi/lib/hard\librdimon_nano.a(rdimon-_kill.o)
 .ARM.attributes
                0x00000000       0x34 E:/uC-Soft/TI/TIRTOS/gcc-arm-none-eabi-6-2017-q1-update/arm-none-eabi/lib/hard\librdimon_nano.a(rdimon-_kill.o)
 .text          0x00000000        0x0 e:/uc-soft/ti/tirtos/gcc-arm-none-eabi-6-2017-q1-update/bin/../lib/gcc/arm-none-eabi/6.3.1/hard/crtend.o
 .data          0x00000000        0x0 e:/uc-soft/ti/tirtos/gcc-arm-none-eabi-6-2017-q1-update/bin/../lib/gcc/arm-none-eabi/6.3.1/hard/crtend.o
 .bss           0x00000000        0x0 e:/uc-soft/ti/tirtos/gcc-arm-none-eabi-6-2017-q1-update/bin/../lib/gcc/arm-none-eabi/6.3.1/hard/crtend.o
 .eh_frame      0x00000000        0x4 e:/uc-soft/ti/tirtos/gcc-arm-none-eabi-6-2017-q1-update/bin/../lib/gcc/arm-none-eabi/6.3.1/hard/crtend.o
 .jcr           0x00000000        0x4 e:/uc-soft/ti/tirtos/gcc-arm-none-eabi-6-2017-q1-update/bin/../lib/gcc/arm-none-eabi/6.3.1/hard/crtend.o
 .ARM.attributes
                0x00000000       0x32 e:/uc-soft/ti/tirtos/gcc-arm-none-eabi-6-2017-q1-update/bin/../lib/gcc/arm-none-eabi/6.3.1/hard/crtend.o
 .text          0x00000000        0x0 e:/uc-soft/ti/tirtos/gcc-arm-none-eabi-6-2017-q1-update/bin/../lib/gcc/arm-none-eabi/6.3.1/hard/crtn.o
 .data          0x00000000        0x0 e:/uc-soft/ti/tirtos/gcc-arm-none-eabi-6-2017-q1-update/bin/../lib/gcc/arm-none-eabi/6.3.1/hard/crtn.o
 .bss           0x00000000        0x0 e:/uc-soft/ti/tirtos/gcc-arm-none-eabi-6-2017-q1-update/bin/../lib/gcc/arm-none-eabi/6.3.1/hard/crtn.o
 .init          0x00000000        0xc e:/uc-soft/ti/tirtos/gcc-arm-none-eabi-6-2017-q1-update/bin/../lib/gcc/arm-none-eabi/6.3.1/hard/crtn.o
 .fini          0x00000000        0xc e:/uc-soft/ti/tirtos/gcc-arm-none-eabi-6-2017-q1-update/bin/../lib/gcc/arm-none-eabi/6.3.1/hard/crtn.o
 .ARM.attributes
                0x00000000       0x18 e:/uc-soft/ti/tirtos/gcc-arm-none-eabi-6-2017-q1-update/bin/../lib/gcc/arm-none-eabi/6.3.1/hard/crtn.o

Memory Configuration

Name             Origin             Length             Attributes
DDR0             0x80000000         0x10000000
OCMCRAM          0x40300000         0x00040000
*default*        0x00000000         0xffffffff

Linker script and memory map

LOAD e:/uc-soft/ti/tirtos/gcc-arm-none-eabi-6-2017-q1-update/bin/../lib/gcc/arm-none-eabi/6.3.1/hard/crti.o
LOAD e:/uc-soft/ti/tirtos/gcc-arm-none-eabi-6-2017-q1-update/bin/../lib/gcc/arm-none-eabi/6.3.1/hard/crtbegin.o
LOAD e:/uc-soft/ti/tirtos/gcc-arm-none-eabi-6-2017-q1-update/bin/../lib/gcc/arm-none-eabi/6.3.1/../../../../arm-none-eabi/lib/hard/crt0.o
LOAD E:/uC-Soft/TI/TIRTOS/PDK_AM~1/packages/ti/starterware/binary/uart_app_echo/obj/am335x-evm/a8host/debug/gcc/uart_app.o
LOAD E:/uC-Soft/TI/TIRTOS/PDK_AM~1/packages/ti/starterware/binary/uart_app_echo/obj/am335x-evm/a8host/debug/gcc/echo_app_main.o

.startcode      0x80000000       0xb4
                0x80000000                . = ALIGN (0x4)
 *init.o(.text)
 .text          0x80000000       0xb4 E:/uC-Soft/TI/TIRTOS/PDK_AM~1/packages/ti/starterware/binary/soc/lib/am335x-evm/a8/debug/gcc\libsoc.a(init.o)
                0x80000000                Entry

.text           0x800000b8     0xada4
                0x800000b8                . = ALIGN (0x4)
 *(.text*)
 .text.UARTAppInit
                0x800000b8      0x134 E:/uC-Soft/TI/TIRTOS/PDK_AM~1/packages/ti/starterware/binary/uart_app_echo/obj/am335x-evm/a8host/debug/gcc/uart_app.o
                0x800000b8                UARTAppInit
 .text.UartAppSetBaudRate
                0x800001ec       0x44 E:/uC-Soft/TI/TIRTOS/PDK_AM~1/packages/ti/starterware/binary/uart_app_echo/obj/am335x-evm/a8host/debug/gcc/uart_app.o
 .text.UartAppLineCharacteristicConfig
                0x80000230       0x60 E:/uC-Soft/TI/TIRTOS/PDK_AM~1/packages/ti/starterware/binary/uart_app_echo/obj/am335x-evm/a8host/debug/gcc/uart_app.o
 .text.UartAppFifoConfig
                0x80000290       0x74 E:/uC-Soft/TI/TIRTOS/PDK_AM~1/packages/ti/starterware/binary/uart_app_echo/obj/am335x-evm/a8host/debug/gcc/uart_app.o
 .text.UartAppIntrConfig
                0x80000304       0xd4 E:/uC-Soft/TI/TIRTOS/PDK_AM~1/packages/ti/starterware/binary/uart_app_echo/obj/am335x-evm/a8host/debug/gcc/uart_app.o
 .text.UartAppIsr
                0x800003d8      0x108 E:/uC-Soft/TI/TIRTOS/PDK_AM~1/packages/ti/starterware/binary/uart_app_echo/obj/am335x-evm/a8host/debug/gcc/uart_app.o
 .text.main     0x800004e0      0x118 E:/uC-Soft/TI/TIRTOS/PDK_AM~1/packages/ti/starterware/binary/uart_app_echo/obj/am335x-evm/a8host/debug/gcc/echo_app_main.o
                0x800004e0                main
 .text.UartAppBoardInfoGet
                0x800005f8       0x48 E:/uC-Soft/TI/TIRTOS/PDK_AM~1/packages/ti/starterware/binary/uart_app_echo/obj/am335x-evm/a8host/debug/gcc/echo_app_main.o
 .text.UartAppSocInfoGet
                0x80000640      0x228 E:/uC-Soft/TI/TIRTOS/PDK_AM~1/packages/ti/starterware/binary/uart_app_echo/obj/am335x-evm/a8host/debug/gcc/echo_app_main.o
 .text.UartAppEcho
                0x80000868       0xe4 E:/uC-Soft/TI/TIRTOS/PDK_AM~1/packages/ti/starterware/binary/uart_app_echo/obj/am335x-evm/a8host/debug/gcc/echo_app_main.o
 .text.MMUConfigAndEnable
                0x8000094c       0xd0 E:/uC-Soft/TI/TIRTOS/PDK_AM~1/packages/ti/starterware/binary/examples/example_utils/lib/am335x-evm/a8/debug/gcc\libexample_utils.a(example_utils_mmu.o)
                0x8000094c                MMUConfigAndEnable
 .text.BOARDInit
                0x80000a1c       0xf8 E:/uC-Soft/TI/TIRTOS/PDK_AM~1/packages/ti/starterware/binary/board/lib/am335x-evm/a8/debug/gcc\libboard.a(board.o)
                0x80000a1c                BOARDInit
 .text.BOARDGetData
                0x80000b14       0x54 E:/uC-Soft/TI/TIRTOS/PDK_AM~1/packages/ti/starterware/binary/board/lib/am335x-evm/a8/debug/gcc\libboard.a(board.o)
                0x80000b14                BOARDGetData
 .text.BOARDGetDeviceCtrlModInstNum
                0x80000b68       0xdc E:/uC-Soft/TI/TIRTOS/PDK_AM~1/packages/ti/starterware/binary/board/lib/am335x-evm/a8/debug/gcc\libboard.a(board.o)
                0x80000b68                BOARDGetDeviceCtrlModInstNum
 .text.DCARDGetDCardList
                0x80000c44       0x4c E:/uC-Soft/TI/TIRTOS/PDK_AM~1/packages/ti/starterware/binary/board/lib/am335x-evm/a8/debug/gcc\libboard.a(dcard.o)
                0x80000c44                DCARDGetDCardList
 .text.DCARDGetRevStr
                0x80000c90       0x50 E:/uC-Soft/TI/TIRTOS/PDK_AM~1/packages/ti/starterware/binary/board/lib/am335x-evm/a8/debug/gcc\libboard.a(dcard.o)
                0x80000c90                DCARDGetRevStr
 .text.DCARDGetData
                0x80000ce0       0x70 E:/uC-Soft/TI/TIRTOS/PDK_AM~1/packages/ti/starterware/binary/board/lib/am335x-evm/a8/debug/gcc\libboard.a(dcard.o)
                0x80000ce0                DCARDGetData
 .text.DCARDGetRevTable
                0x80000d50       0x40 E:/uC-Soft/TI/TIRTOS/PDK_AM~1/packages/ti/starterware/binary/board/lib/am335x-evm/a8/debug/gcc\libboard.a(dcard.o)
                0x80000d50                DCARDGetRevTable
 .text.PLATFORMGetId
                0x80000d90       0x30 E:/uC-Soft/TI/TIRTOS/PDK_AM~1/packages/ti/starterware/binary/board/lib/am335x-evm/a8/debug/gcc\libboard.a(platform.o)
                0x80000d90                PLATFORMGetId
 .text.HW_WR_REG32
                0x80000dc0       0x34 E:/uC-Soft/TI/TIRTOS/PDK_AM~1/packages/ti/starterware/binary/board/lib/am335x-evm/a8/debug/gcc\libboard.a(pinmux.o)
 .text.PINMUXModuleConfig
                0x80000df4      0x30c E:/uC-Soft/TI/TIRTOS/PDK_AM~1/packages/ti/starterware/binary/board/lib/am335x-evm/a8/debug/gcc\libboard.a(pinmux.o)
                0x80000df4                PINMUXModuleConfig
 .text.BoardAm335xInit
                0x80001100       0xdc E:/uC-Soft/TI/TIRTOS/PDK_AM~1/packages/ti/starterware/binary/board/lib/am335x-evm/a8/debug/gcc\libboard.a(board_am335x.o)
                0x80001100                BoardAm335xInit
 .text.BoardGetIdAm335x
                0x800011dc      0x378 E:/uC-Soft/TI/TIRTOS/PDK_AM~1/packages/ti/starterware/binary/board/lib/am335x-evm/a8/debug/gcc\libboard.a(board_am335x.o)
                0x800011dc                BoardGetIdAm335x
 .text.BoardGetI2cDataAm335x
                0x80001554       0x20 E:/uC-Soft/TI/TIRTOS/PDK_AM~1/packages/ti/starterware/binary/board/lib/am335x-evm/a8/debug/gcc\libboard.a(board_am335x.o)
                0x80001554                BoardGetI2cDataAm335x
 .text.BoardGetDataAm335x
                0x80001574       0x4c E:/uC-Soft/TI/TIRTOS/PDK_AM~1/packages/ti/starterware/binary/board/lib/am335x-evm/a8/debug/gcc\libboard.a(board_am335x.o)
                0x80001574                BoardGetDataAm335x
 .text.DCardAm335xGetDCardList
                0x800015c0       0x20 E:/uC-Soft/TI/TIRTOS/PDK_AM~1/packages/ti/starterware/binary/board/lib/am335x-evm/a8/debug/gcc\libboard.a(dcard_am335x.o)
                0x800015c0                DCardAm335xGetDCardList
 .text.BoardAm335xGpevmLcdDevicePowerOn
                0x800015e0      0x164 E:/uC-Soft/TI/TIRTOS/PDK_AM~1/packages/ti/starterware/binary/board/lib/am335x-evm/a8/debug/gcc\libboard.a(am335x_gpevm.o)
                0x800015e0                BoardAm335xGpevmLcdDevicePowerOn
 .text.BoardAm335xGpevmGetLcdDevData
                0x80001744       0x64 E:/uC-Soft/TI/TIRTOS/PDK_AM~1/packages/ti/starterware/binary/board/lib/am335x-evm/a8/debug/gcc\libboard.a(am335x_gpevm.o)
                0x80001744                BoardAm335xGpevmGetLcdDevData
 .text.BoardAm335xGpevmLcdUpdnPinControl
                0x800017a8      0x1e8 E:/uC-Soft/TI/TIRTOS/PDK_AM~1/packages/ti/starterware/binary/board/lib/am335x-evm/a8/debug/gcc\libboard.a(am335x_gpevm.o)
                0x800017a8                BoardAm335xGpevmLcdUpdnPinControl
 .text.BoardAm335xGpevmGpioCfg
                0x80001990       0xb8 E:/uC-Soft/TI/TIRTOS/PDK_AM~1/packages/ti/starterware/binary/board/lib/am335x-evm/a8/debug/gcc\libboard.a(am335x_gpevm.o)
                0x80001990                BoardAm335xGpevmGpioCfg
 .text.BoardAm335xBBBPowerOnDCardDev
                0x80001a48      0x100 E:/uC-Soft/TI/TIRTOS/PDK_AM~1/packages/ti/starterware/binary/board/lib/am335x-evm/a8/debug/gcc\libboard.a(am335x_beagleboneblack.o)
                0x80001a48                BoardAm335xBBBPowerOnDCardDev
 .text.BoardAm335xBBBGetLcdDevData
                0x80001b48       0x64 E:/uC-Soft/TI/TIRTOS/PDK_AM~1/packages/ti/starterware/binary/board/lib/am335x-evm/a8/debug/gcc\libboard.a(am335x_beagleboneblack.o)
                0x80001b48                BoardAm335xBBBGetLcdDevData
 .text.BoardAm335xBBBLcdBacklightEnable
                0x80001bac       0xe0 E:/uC-Soft/TI/TIRTOS/PDK_AM~1/packages/ti/starterware/binary/board/lib/am335x-evm/a8/debug/gcc\libboard.a(am335x_beagleboneblack.o)
                0x80001bac                BoardAm335xBBBLcdBacklightEnable
 .text.BoardAm335xBBBLcdAvddEnable
                0x80001c8c       0xe0 E:/uC-Soft/TI/TIRTOS/PDK_AM~1/packages/ti/starterware/binary/board/lib/am335x-evm/a8/debug/gcc\libboard.a(am335x_beagleboneblack.o)
                0x80001c8c                BoardAm335xBBBLcdAvddEnable
 .text.BoardAm335xBBBGpioCfg
                0x80001d6c       0xb8 E:/uC-Soft/TI/TIRTOS/PDK_AM~1/packages/ti/starterware/binary/board/lib/am335x-evm/a8/debug/gcc\libboard.a(am335x_beagleboneblack.o)
                0x80001d6c                BoardAm335xBBBGpioCfg
 .text.BoardAm335xIceV2PhySetupAndReset
                0x80001e24      0x394 E:/uC-Soft/TI/TIRTOS/PDK_AM~1/packages/ti/starterware/binary/board/lib/am335x-evm/a8/debug/gcc\libboard.a(am335x_icev2.o)
                0x80001e24                BoardAm335xIceV2PhySetupAndReset
 .text.BoardAm335xAMIC110PhySetupAndReset
                0x800021b8      0x394 E:/uC-Soft/TI/TIRTOS/PDK_AM~1/packages/ti/starterware/binary/board/lib/am335x-evm/a8/debug/gcc\libboard.a(am335x_amic110.o)
                0x800021b8                BoardAm335xAMIC110PhySetupAndReset
 .text.DCardAm335xLCD4GetEepromOffset
                0x8000254c       0x54 E:/uC-Soft/TI/TIRTOS/PDK_AM~1/packages/ti/starterware/binary/board/lib/am335x-evm/a8/debug/gcc\libboard.a(am335x_lcd4_dcard.o)
                0x8000254c                DCardAm335xLCD4GetEepromOffset
 .text.DCardAm335xLCD4GetEepromOffsetSize
                0x800025a0       0x1c E:/uC-Soft/TI/TIRTOS/PDK_AM~1/packages/ti/starterware/binary/board/lib/am335x-evm/a8/debug/gcc\libboard.a(am335x_lcd4_dcard.o)
                0x800025a0                DCardAm335xLCD4GetEepromOffsetSize
 .text.CONSOLEUtilsPuts
                0x800025bc       0x68 E:/uC-Soft/TI/TIRTOS/PDK_AM~1/packages/ti/starterware/binary/utils/lib/am335x-evm/a8/debug/gcc\libutils.a(console_utils.o)
                0x800025bc                CONSOLEUtilsPuts
 .text.CONSOLEUtilsPrintf
                0x80002624       0x7c E:/uC-Soft/TI/TIRTOS/PDK_AM~1/packages/ti/starterware/binary/utils/lib/am335x-evm/a8/debug/gcc\libutils.a(console_utils.o)
                0x80002624                CONSOLEUtilsPrintf
 .text.HW_RD_REG32
                0x800026a0       0x34 E:/uC-Soft/TI/TIRTOS/PDK_AM~1/packages/ti/starterware/binary/utils/lib/am335x-evm/a8/debug/gcc\libutils.a(i2c_utils.o)
 .text.HW_WR_REG32
                0x800026d4       0x34 E:/uC-Soft/TI/TIRTOS/PDK_AM~1/packages/ti/starterware/binary/utils/lib/am335x-evm/a8/debug/gcc\libutils.a(i2c_utils.o)
 .text.I2CUtilsInit
                0x80002708      0x21c E:/uC-Soft/TI/TIRTOS/PDK_AM~1/packages/ti/starterware/binary/utils/lib/am335x-evm/a8/debug/gcc\libutils.a(i2c_utils.o)
                0x80002708                I2CUtilsInit
 .text.I2CUtilsWrite
                0x80002924      0x1c8 E:/uC-Soft/TI/TIRTOS/PDK_AM~1/packages/ti/starterware/binary/utils/lib/am335x-evm/a8/debug/gcc\libutils.a(i2c_utils.o)
                0x80002924                I2CUtilsWrite
 .text.I2CUtilsRead
                0x80002aec      0x1cc E:/uC-Soft/TI/TIRTOS/PDK_AM~1/packages/ti/starterware/binary/utils/lib/am335x-evm/a8/debug/gcc\libutils.a(i2c_utils.o)
                0x80002aec                I2CUtilsRead
 .text.I2cUtilsCtrlInit
                0x80002cb8      0x190 E:/uC-Soft/TI/TIRTOS/PDK_AM~1/packages/ti/starterware/binary/utils/lib/am335x-evm/a8/debug/gcc\libutils.a(i2c_utils.o)
 .text.I2cUtilsTransceive
                0x80002e48      0x864 E:/uC-Soft/TI/TIRTOS/PDK_AM~1/packages/ti/starterware/binary/utils/lib/am335x-evm/a8/debug/gcc\libutils.a(i2c_utils.o)
 .text.I2cUtilsStatusCheck
                0x800036ac       0xe8 E:/uC-Soft/TI/TIRTOS/PDK_AM~1/packages/ti/starterware/binary/utils/lib/am335x-evm/a8/debug/gcc\libutils.a(i2c_utils.o)
 .text.I2cUtilsPinmuxConfig
                0x80003794       0xf0 E:/uC-Soft/TI/TIRTOS/PDK_AM~1/packages/ti/starterware/binary/utils/lib/am335x-evm/a8/debug/gcc\libutils.a(i2c_utils.o)
 .text.I2cUtilsModuleClockConfig
                0x80003884       0x84 E:/uC-Soft/TI/TIRTOS/PDK_AM~1/packages/ti/starterware/binary/utils/lib/am335x-evm/a8/debug/gcc\libutils.a(i2c_utils.o)
 .text.I2cUtilsParamsValidate
                0x80003908       0xcc E:/uC-Soft/TI/TIRTOS/PDK_AM~1/packages/ti/starterware/binary/utils/lib/am335x-evm/a8/debug/gcc\libutils.a(i2c_utils.o)
 .text.I2cUtilsUpdateInfo
                0x800039d4       0x40 E:/uC-Soft/TI/TIRTOS/PDK_AM~1/packages/ti/starterware/binary/utils/lib/am335x-evm/a8/debug/gcc\libutils.a(i2c_utils.o)
 .text.I2C1ModuleClkConfig
                0x80003a14       0xd4 E:/uC-Soft/TI/TIRTOS/PDK_AM~1/packages/ti/starterware/binary/utils/lib/am335x-evm/a8/debug/gcc\libutils.a(i2c_utils.o)
                0x80003a14                I2C1ModuleClkConfig
 .text.I2C0ModuleClkConfig
                0x80003ae8       0xfc E:/uC-Soft/TI/TIRTOS/PDK_AM~1/packages/ti/starterware/binary/utils/lib/am335x-evm/a8/debug/gcc\libutils.a(i2c_utils.o)
                0x80003ae8                I2C0ModuleClkConfig
 .text.I2C2ModuleClkConfig
                0x80003be4      0x134 E:/uC-Soft/TI/TIRTOS/PDK_AM~1/packages/ti/starterware/binary/utils/lib/am335x-evm/a8/debug/gcc\libutils.a(i2c_utils.o)
                0x80003be4                I2C2ModuleClkConfig
 .text.TIMEGetTimeStamp
                0x80003d18       0x28 E:/uC-Soft/TI/TIRTOS/PDK_AM~1/packages/ti/starterware/binary/utils/lib/am335x-evm/a8/debug/gcc\libutils.a(time_utils.o)
                0x80003d18                TIMEGetTimeStamp
 .text.DELAYMsec
                0x80003d40       0x98 E:/uC-Soft/TI/TIRTOS/PDK_AM~1/packages/ti/starterware/binary/utils/lib/am335x-evm/a8/debug/gcc\libutils.a(time_utils.o)
                0x80003d40                DELAYMsec
 .text.TIMERUtilGetTimeStamp
                0x80003dd8      0x128 E:/uC-Soft/TI/TIRTOS/PDK_AM~1/packages/ti/starterware/binary/utils/lib/am335x-evm/a8/debug/gcc\libutils.a(dmtimer_utils.o)
                0x80003dd8                TIMERUtilGetTimeStamp
 .text.CONSOLEUtilsUartPutChar
                0x80003f00      0x174 E:/uC-Soft/TI/TIRTOS/PDK_AM~1/packages/ti/starterware/binary/utils/lib/am335x-evm/a8/debug/gcc\libutils.a(console_utils_uart.o)
                0x80003f00                CONSOLEUtilsUartPutChar
 .text.CONSOLEUtilsUartPutStr
                0x80004074       0xa8 E:/uC-Soft/TI/TIRTOS/PDK_AM~1/packages/ti/starterware/binary/utils/lib/am335x-evm/a8/debug/gcc\libutils.a(console_utils_uart.o)
                0x80004074                CONSOLEUtilsUartPutStr
 .text.CONSOLEUtilsUartPrintFmt
                0x8000411c      0xfe0 E:/uC-Soft/TI/TIRTOS/PDK_AM~1/packages/ti/starterware/binary/utils/lib/am335x-evm/a8/debug/gcc\libutils.a(console_utils_uart.o)
                0x8000411c                CONSOLEUtilsUartPrintFmt
 .text.SOCGetSocFamilyId
                0x800050fc       0x30 E:/uC-Soft/TI/TIRTOS/PDK_AM~1/packages/ti/starterware/binary/soc/lib/am335x-evm/a8/debug/gcc\libsoc.a(soc.o)
                0x800050fc                SOCGetSocFamilyId
 .text.start_boot
                0x8000512c       0x24 E:/uC-Soft/TI/TIRTOS/PDK_AM~1/packages/ti/starterware/binary/soc/lib/am335x-evm/a8/debug/gcc\libsoc.a(startup.o)
                0x8000512c                start_boot
 .text.CopyVectorTable
                0x80005150       0xbc E:/uC-Soft/TI/TIRTOS/PDK_AM~1/packages/ti/starterware/binary/soc/lib/am335x-evm/a8/debug/gcc\libsoc.a(startup.o)
 .text.HW_RD_REG32
                0x8000520c       0x34 E:/uC-Soft/TI/TIRTOS/PDK_AM~1/packages/ti/starterware/binary/soc/lib/am335x-evm/a8/debug/gcc\libsoc.a(am335x_chipdb.o)
 .text.CHIPDBIsResourcePresent
                0x80005240      0x140 E:/uC-Soft/TI/TIRTOS/PDK_AM~1/packages/ti/starterware/binary/soc/lib/am335x-evm/a8/debug/gcc\libsoc.a(am335x_chipdb.o)
                0x80005240                CHIPDBIsResourcePresent
 .text.CHIPDBSecurityLevel
                0x80005380       0x20 E:/uC-Soft/TI/TIRTOS/PDK_AM~1/packages/ti/starterware/binary/soc/lib/am335x-evm/a8/debug/gcc\libsoc.a(am335x_chipdb.o)
                0x80005380                CHIPDBSecurityLevel
 .text.CHIPDBBaseAddress
                0x800053a0       0x78 E:/uC-Soft/TI/TIRTOS/PDK_AM~1/packages/ti/starterware/binary/soc/lib/am335x-evm/a8/debug/gcc\libsoc.a(am335x_chipdb.o)
                0x800053a0                CHIPDBBaseAddress
 .text.ChipDBReadBasePNEncoding
                0x80005418       0x1c E:/uC-Soft/TI/TIRTOS/PDK_AM~1/packages/ti/starterware/binary/soc/lib/am335x-evm/a8/debug/gcc\libsoc.a(am335x_chipdb.o)
 .text.ChipDBReadSecurityLevel
                0x80005434       0xcc E:/uC-Soft/TI/TIRTOS/PDK_AM~1/packages/ti/starterware/binary/soc/lib/am335x-evm/a8/debug/gcc\libsoc.a(am335x_chipdb.o)
 .text.CHIPDBIsSecureModule
                0x80005500       0x64 E:/uC-Soft/TI/TIRTOS/PDK_AM~1/packages/ti/starterware/binary/soc/lib/am335x-evm/a8/debug/gcc\libsoc.a(hw_am335x_chipdb.o)
                0x80005500                CHIPDBIsSecureModule
 .text.HW_RD_REG32
                0x80005564       0x34 E:/uC-Soft/TI/TIRTOS/PDK_AM~1/packages/ti/starterware/binary/soc/lib/am335x-evm/a8/debug/gcc\libsoc.a(intc.o)
 .text.HW_WR_REG32
                0x80005598       0x34 E:/uC-Soft/TI/TIRTOS/PDK_AM~1/packages/ti/starterware/binary/soc/lib/am335x-evm/a8/debug/gcc\libsoc.a(intc.o)
 .text.INTCInit
                0x800055cc       0xd0 E:/uC-Soft/TI/TIRTOS/PDK_AM~1/packages/ti/starterware/binary/soc/lib/am335x-evm/a8/debug/gcc\libsoc.a(intc.o)
                0x800055cc                INTCInit
 .text.INTCConfigIntr
                0x8000569c      0x120 E:/uC-Soft/TI/TIRTOS/PDK_AM~1/packages/ti/starterware/binary/soc/lib/am335x-evm/a8/debug/gcc\libsoc.a(intc.o)
                0x8000569c                INTCConfigIntr
 .text.INTCCommonIntrHandler
                0x800057bc      0x110 E:/uC-Soft/TI/TIRTOS/PDK_AM~1/packages/ti/starterware/binary/soc/lib/am335x-evm/a8/debug/gcc\libsoc.a(intc.o)
                0x800057bc                INTCCommonIntrHandler
 .text.IntDefaultHandler
                0x800058cc       0x54 E:/uC-Soft/TI/TIRTOS/PDK_AM~1/packages/ti/starterware/binary/soc/lib/am335x-evm/a8/debug/gcc\libsoc.a(intc.o)
 .text.CACHEEnable
                0x80005920       0x84 E:/uC-Soft/TI/TIRTOS/PDK_AM~1/packages/ti/starterware/binary/soc/lib/am335x-evm/a8/debug/gcc\libsoc.a(cache_arm.o)
                0x80005920                CACHEEnable
 .text.MMUInit  0x800059a4       0x84 E:/uC-Soft/TI/TIRTOS/PDK_AM~1/packages/ti/starterware/binary/soc/lib/am335x-evm/a8/debug/gcc\libsoc.a(mmu_arm.o)
                0x800059a4                MMUInit
 .text.MMUMemRegionMap
                0x80005a28      0x290 E:/uC-Soft/TI/TIRTOS/PDK_AM~1/packages/ti/starterware/binary/soc/lib/am335x-evm/a8/debug/gcc\libsoc.a(mmu_arm.o)
                0x80005a28                MMUMemRegionMap
 .text.MMUEnable
                0x80005cb8       0x3c E:/uC-Soft/TI/TIRTOS/PDK_AM~1/packages/ti/starterware/binary/soc/lib/am335x-evm/a8/debug/gcc\libsoc.a(mmu_arm.o)
                0x80005cb8                MMUEnable
 .text.HW_RD_REG32
                0x80005cf4       0x34 E:/uC-Soft/TI/TIRTOS/PDK_AM~1/packages/ti/starterware/binary/soc/lib/am335x-evm/a8/debug/gcc\libsoc.a(am335x_prcm.o)
 .text.HW_WR_REG32
                0x80005d28       0x34 E:/uC-Soft/TI/TIRTOS/PDK_AM~1/packages/ti/starterware/binary/soc/lib/am335x-evm/a8/debug/gcc\libsoc.a(am335x_prcm.o)
 .text.enableModule
                0x80005d5c       0xe0 E:/uC-Soft/TI/TIRTOS/PDK_AM~1/packages/ti/starterware/binary/soc/lib/am335x-evm/a8/debug/gcc\libsoc.a(am335x_prcm.o)
                0x80005d5c                enableModule
 .text.PRCMModuleEnable
                0x80005e3c      0x904 E:/uC-Soft/TI/TIRTOS/PDK_AM~1/packages/ti/starterware/binary/soc/lib/am335x-evm/a8/debug/gcc\libsoc.a(am335x_prcm.o)
                0x80005e3c                PRCMModuleEnable
 .text          0x80006740      0x488 E:/uC-Soft/TI/TIRTOS/PDK_AM~1/packages/ti/starterware/binary/soc/lib/am335x-evm/a8/debug/gcc\libsoc.a(cp15.o)
                0x80006740                CP15ICacheDisable
                0x8000675c                CP15DCacheDisable
                0x80006778                CP15ICacheEnable
                0x80006788                CP15DCacheEnable
                0x80006798                CP15DCacheFlush
                0x8000682c                CP15DCacheClean
                0x800068c0                CP15DCacheCleanFlush
                0x80006954                CP15ICacheFlush
                0x80006964                CP15DCacheCleanBuff
                0x800069b8                CP15DCacheCleanFlushBuff
                0x80006a0c                CP15DCacheFlushBuff
                0x80006a70                CP15ICacheFlushBuff
                0x80006ac4                CP15Ttb0Set
                0x80006ad0                CP15TlbInvalidate
                0x80006adc                CP15MMUDisable
                0x80006af4                CP15MMUEnable
                0x80006b08                CP15VectorBaseAddrSet
                0x80006b14                CP15BranchPredictorInvalidate
                0x80006b20                CP15BranchPredictionEnable
                0x80006b30                CP15BranchPredictionDisable
                0x80006b40                CP15DomainAccessClientSet
                0x80006b50                CP15ControlFeatureDisable
                0x80006b64                CP15ControlFeatureEnable
                0x80006b78                CP15TtbCtlTtb0Config
                0x80006b88                CP15AuxControlFeatureEnable
                0x80006b9c                CP15AuxControlFeatureDisable
                0x80006bb0                CP15MainIdPrimPartNumGet
 .text          0x80006bc8       0x70 E:/uC-Soft/TI/TIRTOS/PDK_AM~1/packages/ti/starterware/binary/soc/lib/am335x-evm/a8/debug/gcc\libsoc.a(exceptionhandler.o)
                0x80006bc8                SVC_Handler
                0x80006bf0                IRQHandler
                0x80006c30                FIQHandler
                0x80006c34                AbortHandler
                0x80006c34                UndefInstHandler
 .text.CPUIntrEnable
                0x80006c38       0x3c E:/uC-Soft/TI/TIRTOS/PDK_AM~1/packages/ti/starterware/binary/soc/lib/am335x-evm/a8/debug/gcc\libsoc.a(cpu.o)
                0x80006c38                CPUIntrEnable
 .text.HW_RD_REG32
                0x80006c74       0x34 E:/uC-Soft/TI/TIRTOS/PDK_AM~1/packages/ti/starterware/binary/dal/lib/am335x-evm/a8/debug/gcc\libdal.a(i2c.o)
 .text.HW_WR_REG32
                0x80006ca8       0x34 E:/uC-Soft/TI/TIRTOS/PDK_AM~1/packages/ti/starterware/binary/dal/lib/am335x-evm/a8/debug/gcc\libdal.a(i2c.o)
 .text.HW_WR_FIELD32_RAW
                0x80006cdc       0x7c E:/uC-Soft/TI/TIRTOS/PDK_AM~1/packages/ti/starterware/binary/dal/lib/am335x-evm/a8/debug/gcc\libdal.a(i2c.o)
 .text.HW_RD_FIELD32_RAW
                0x80006d58       0x54 E:/uC-Soft/TI/TIRTOS/PDK_AM~1/packages/ti/starterware/binary/dal/lib/am335x-evm/a8/debug/gcc\libdal.a(i2c.o)
 .text.I2CClkConfig
                0x80006dac       0xe4 E:/uC-Soft/TI/TIRTOS/PDK_AM~1/packages/ti/starterware/binary/dal/lib/am335x-evm/a8/debug/gcc\libdal.a(i2c.o)
                0x80006dac                I2CClkConfig
 .text.I2CModuleEnable
                0x80006e90       0x70 E:/uC-Soft/TI/TIRTOS/PDK_AM~1/packages/ti/starterware/binary/dal/lib/am335x-evm/a8/debug/gcc\libdal.a(i2c.o)
                0x80006e90                I2CModuleEnable
 .text.I2CSetMode
                0x80006f00       0xc8 E:/uC-Soft/TI/TIRTOS/PDK_AM~1/packages/ti/starterware/binary/dal/lib/am335x-evm/a8/debug/gcc\libdal.a(i2c.o)
                0x80006f00                I2CSetMode
 .text.I2CStart
                0x80006fc8       0x3c E:/uC-Soft/TI/TIRTOS/PDK_AM~1/packages/ti/starterware/binary/dal/lib/am335x-evm/a8/debug/gcc\libdal.a(i2c.o)
                0x80006fc8                I2CStart
 .text.I2CStop  0x80007004       0x3c E:/uC-Soft/TI/TIRTOS/PDK_AM~1/packages/ti/starterware/binary/dal/lib/am335x-evm/a8/debug/gcc\libdal.a(i2c.o)
                0x80007004                I2CStop
 .text.I2CIntrDisable
                0x80007040       0x3c E:/uC-Soft/TI/TIRTOS/PDK_AM~1/packages/ti/starterware/binary/dal/lib/am335x-evm/a8/debug/gcc\libdal.a(i2c.o)
                0x80007040                I2CIntrDisable
 .text.I2CIntrRawStatus
                0x8000707c       0x38 E:/uC-Soft/TI/TIRTOS/PDK_AM~1/packages/ti/starterware/binary/dal/lib/am335x-evm/a8/debug/gcc\libdal.a(i2c.o)
                0x8000707c                I2CIntrRawStatus
 .text.I2CIntrClear
                0x800070b4       0x3c E:/uC-Soft/TI/TIRTOS/PDK_AM~1/packages/ti/starterware/binary/dal/lib/am335x-evm/a8/debug/gcc\libdal.a(i2c.o)
                0x800070b4                I2CIntrClear
 .text.I2CMasterSetSlaveAddr
                0x800070f0       0x90 E:/uC-Soft/TI/TIRTOS/PDK_AM~1/packages/ti/starterware/binary/dal/lib/am335x-evm/a8/debug/gcc\libdal.a(i2c.o)
                0x800070f0                I2CMasterSetSlaveAddr
 .text.I2CSetDataCount
                0x80007180       0x40 E:/uC-Soft/TI/TIRTOS/PDK_AM~1/packages/ti/starterware/binary/dal/lib/am335x-evm/a8/debug/gcc\libdal.a(i2c.o)
                0x80007180                I2CSetDataCount
 .text.I2CGetDataCount
                0x800071c0       0x40 E:/uC-Soft/TI/TIRTOS/PDK_AM~1/packages/ti/starterware/binary/dal/lib/am335x-evm/a8/debug/gcc\libdal.a(i2c.o)
                0x800071c0                I2CGetDataCount
 .text.I2CFifoThresholdConfig
                0x80007200       0x74 E:/uC-Soft/TI/TIRTOS/PDK_AM~1/packages/ti/starterware/binary/dal/lib/am335x-evm/a8/debug/gcc\libdal.a(i2c.o)
                0x80007200                I2CFifoThresholdConfig
 .text.I2CFifoFlush
                0x80007274       0xc0 E:/uC-Soft/TI/TIRTOS/PDK_AM~1/packages/ti/starterware/binary/dal/lib/am335x-evm/a8/debug/gcc\libdal.a(i2c.o)
                0x80007274                I2CFifoFlush
 .text.I2CBufStatus
                0x80007334       0xa0 E:/uC-Soft/TI/TIRTOS/PDK_AM~1/packages/ti/starterware/binary/dal/lib/am335x-evm/a8/debug/gcc\libdal.a(i2c.o)
                0x80007334                I2CBufStatus
 .text.I2CSoftReset
                0x800073d4       0x3c E:/uC-Soft/TI/TIRTOS/PDK_AM~1/packages/ti/starterware/binary/dal/lib/am335x-evm/a8/debug/gcc\libdal.a(i2c.o)
                0x800073d4                I2CSoftReset
 .text.I2CAutoIdleEnable
                0x80007410       0x70 E:/uC-Soft/TI/TIRTOS/PDK_AM~1/packages/ti/starterware/binary/dal/lib/am335x-evm/a8/debug/gcc\libdal.a(i2c.o)
                0x80007410                I2CAutoIdleEnable
 .text.I2CSystemStatus
                0x80007480       0x5c E:/uC-Soft/TI/TIRTOS/PDK_AM~1/packages/ti/starterware/binary/dal/lib/am335x-evm/a8/debug/gcc\libdal.a(i2c.o)
                0x80007480                I2CSystemStatus
 .text.I2CPutTxData
                0x800074dc       0x44 E:/uC-Soft/TI/TIRTOS/PDK_AM~1/packages/ti/starterware/binary/dal/lib/am335x-evm/a8/debug/gcc\libdal.a(i2c.o)
                0x800074dc                I2CPutTxData
 .text.I2CGetRxData
                0x80007520       0x40 E:/uC-Soft/TI/TIRTOS/PDK_AM~1/packages/ti/starterware/binary/dal/lib/am335x-evm/a8/debug/gcc\libdal.a(i2c.o)
                0x80007520                I2CGetRxData
 .text.HW_WR_REG32
                0x80007560       0x34 E:/uC-Soft/TI/TIRTOS/PDK_AM~1/packages/ti/starterware/binary/dal/lib/am335x-evm/a8/debug/gcc\libdal.a(uart.o)
 .text.HW_RD_REG16
                0x80007594       0x34 E:/uC-Soft/TI/TIRTOS/PDK_AM~1/packages/ti/starterware/binary/dal/lib/am335x-evm/a8/debug/gcc\libdal.a(uart.o)
 .text.HW_WR_REG16
                0x800075c8       0x38 E:/uC-Soft/TI/TIRTOS/PDK_AM~1/packages/ti/starterware/binary/dal/lib/am335x-evm/a8/debug/gcc\libdal.a(uart.o)
 .text.HW_RD_REG8
                0x80007600       0x34 E:/uC-Soft/TI/TIRTOS/PDK_AM~1/packages/ti/starterware/binary/dal/lib/am335x-evm/a8/debug/gcc\libdal.a(uart.o)
 .text.HW_WR_REG8
                0x80007634       0x38 E:/uC-Soft/TI/TIRTOS/PDK_AM~1/packages/ti/starterware/binary/dal/lib/am335x-evm/a8/debug/gcc\libdal.a(uart.o)
 .text.HW_WR_FIELD32_RAW
                0x8000766c       0x7c E:/uC-Soft/TI/TIRTOS/PDK_AM~1/packages/ti/starterware/binary/dal/lib/am335x-evm/a8/debug/gcc\libdal.a(uart.o)
 .text.HW_WR_FIELD16_RAW
                0x800076e8       0x90 E:/uC-Soft/TI/TIRTOS/PDK_AM~1/packages/ti/starterware/binary/dal/lib/am335x-evm/a8/debug/gcc\libdal.a(uart.o)
 .text.HW_RD_FIELD16_RAW
                0x80007778       0x60 E:/uC-Soft/TI/TIRTOS/PDK_AM~1/packages/ti/starterware/binary/dal/lib/am335x-evm/a8/debug/gcc\libdal.a(uart.o)
 .text.UARTModuleReset
                0x800077d8       0x6c E:/uC-Soft/TI/TIRTOS/PDK_AM~1/packages/ti/starterware/binary/dal/lib/am335x-evm/a8/debug/gcc\libdal.a(uart.o)
                0x800077d8                UARTModuleReset
 .text.UARTSetRegAccessMode
                0x80007844       0xc4 E:/uC-Soft/TI/TIRTOS/PDK_AM~1/packages/ti/starterware/binary/dal/lib/am335x-evm/a8/debug/gcc\libdal.a(uart.o)
                0x80007844                UARTSetRegAccessMode
 .text.UARTSetBaudRate
                0x80007908      0x368 E:/uC-Soft/TI/TIRTOS/PDK_AM~1/packages/ti/starterware/binary/dal/lib/am335x-evm/a8/debug/gcc\libdal.a(uart.o)
                0x80007908                UARTSetBaudRate
 .text.UARTIntrEnable
                0x80007c70      0x1dc E:/uC-Soft/TI/TIRTOS/PDK_AM~1/packages/ti/starterware/binary/dal/lib/am335x-evm/a8/debug/gcc\libdal.a(uart.o)
                0x80007c70                UARTIntrEnable
 .text.UARTIntrDisable
                0x80007e4c      0x1c8 E:/uC-Soft/TI/TIRTOS/PDK_AM~1/packages/ti/starterware/binary/dal/lib/am335x-evm/a8/debug/gcc\libdal.a(uart.o)
                0x80007e4c                UARTIntrDisable
 .text.UARTIntrStatus
                0x80008014       0x94 E:/uC-Soft/TI/TIRTOS/PDK_AM~1/packages/ti/starterware/binary/dal/lib/am335x-evm/a8/debug/gcc\libdal.a(uart.o)
                0x80008014                UARTIntrStatus
 .text.UARTLineCharacteristicConfig
                0x800080a8      0x15c E:/uC-Soft/TI/TIRTOS/PDK_AM~1/packages/ti/starterware/binary/dal/lib/am335x-evm/a8/debug/gcc\libdal.a(uart.o)
                0x800080a8                UARTLineCharacteristicConfig
 .text.UARTFifoConfig
                0x80008204      0x464 E:/uC-Soft/TI/TIRTOS/PDK_AM~1/packages/ti/starterware/binary/dal/lib/am335x-evm/a8/debug/gcc\libdal.a(uart.o)
                0x80008204                UARTFifoConfig
 .text.UARTBreakCtrlEnable
                0x80008668       0x70 E:/uC-Soft/TI/TIRTOS/PDK_AM~1/packages/ti/starterware/binary/dal/lib/am335x-evm/a8/debug/gcc\libdal.a(uart.o)
                0x80008668                UARTBreakCtrlEnable
 .text.UARTIsSpaceAvail
                0x800086d8       0xac E:/uC-Soft/TI/TIRTOS/PDK_AM~1/packages/ti/starterware/binary/dal/lib/am335x-evm/a8/debug/gcc\libdal.a(uart.o)
                0x800086d8                UARTIsSpaceAvail
 .text.UARTGetChar
                0x80008784      0x1c0 E:/uC-Soft/TI/TIRTOS/PDK_AM~1/packages/ti/starterware/binary/dal/lib/am335x-evm/a8/debug/gcc\libdal.a(uart.o)
                0x80008784                UARTGetChar
 .text.UARTPutChar
                0x80008944      0x1b8 E:/uC-Soft/TI/TIRTOS/PDK_AM~1/packages/ti/starterware/binary/dal/lib/am335x-evm/a8/debug/gcc\libdal.a(uart.o)
                0x80008944                UARTPutChar
 .text.UARTFifoWrite
                0x80008afc       0x78 E:/uC-Soft/TI/TIRTOS/PDK_AM~1/packages/ti/starterware/binary/dal/lib/am335x-evm/a8/debug/gcc\libdal.a(uart.o)
                0x80008afc                UARTFifoWrite
 .text.HW_RD_REG32
                0x80008b74       0x34 E:/uC-Soft/TI/TIRTOS/PDK_AM~1/packages/ti/starterware/binary/dal/lib/am335x-evm/a8/debug/gcc\libdal.a(gpio.o)
 .text.HW_WR_REG32
                0x80008ba8       0x34 E:/uC-Soft/TI/TIRTOS/PDK_AM~1/packages/ti/starterware/binary/dal/lib/am335x-evm/a8/debug/gcc\libdal.a(gpio.o)
 .text.HW_WR_FIELD32_RAW
                0x80008bdc       0x7c E:/uC-Soft/TI/TIRTOS/PDK_AM~1/packages/ti/starterware/binary/dal/lib/am335x-evm/a8/debug/gcc\libdal.a(gpio.o)
 .text.GPIOModuleEnable
                0x80008c58       0x70 E:/uC-Soft/TI/TIRTOS/PDK_AM~1/packages/ti/starterware/binary/dal/lib/am335x-evm/a8/debug/gcc\libdal.a(gpio.o)
                0x80008c58                GPIOModuleEnable
 .text.GPIOSetDirMode
                0x80008cc8       0xa0 E:/uC-Soft/TI/TIRTOS/PDK_AM~1/packages/ti/starterware/binary/dal/lib/am335x-evm/a8/debug/gcc\libdal.a(gpio.o)
                0x80008cc8                GPIOSetDirMode
 .text.GPIOPinWrite
                0x80008d68       0x7c E:/uC-Soft/TI/TIRTOS/PDK_AM~1/packages/ti/starterware/binary/dal/lib/am335x-evm/a8/debug/gcc\libdal.a(gpio.o)
                0x80008d68                GPIOPinWrite
 .text.HW_RD_REG32
                0x80008de4       0x34 E:/uC-Soft/TI/TIRTOS/PDK_AM~1/packages/ti/starterware/binary/dal/lib/am335x-evm/a8/debug/gcc\libdal.a(dmtimer.o)
 .text.DMTIMERGetCounterVal
                0x80008e18       0x84 E:/uC-Soft/TI/TIRTOS/PDK_AM~1/packages/ti/starterware/binary/dal/lib/am335x-evm/a8/debug/gcc\libdal.a(dmtimer.o)
                0x80008e18                DMTIMERGetCounterVal
 .text.DMTIMERGetWritePostedStatus
                0x80008e9c       0x38 E:/uC-Soft/TI/TIRTOS/PDK_AM~1/packages/ti/starterware/binary/dal/lib/am335x-evm/a8/debug/gcc\libdal.a(dmtimer.o)
                0x80008e9c                DMTIMERGetWritePostedStatus
 .text          0x80008ed4      0x114 e:/uc-soft/ti/tirtos/gcc-arm-none-eabi-6-2017-q1-update/bin/../lib/gcc/arm-none-eabi/6.3.1/hard\libgcc.a(_udivsi3.o)
                0x80008ed4                __aeabi_uidiv
                0x80008ed4                __udivsi3
                0x80008fc8                __aeabi_uidivmod
 .text          0x80008fe8      0x148 e:/uc-soft/ti/tirtos/gcc-arm-none-eabi-6-2017-q1-update/bin/../lib/gcc/arm-none-eabi/6.3.1/hard\libgcc.a(_divsi3.o)
                0x80008fe8                __divsi3
                0x80008fe8                __aeabi_idiv
                0x80009110                __aeabi_idivmod
 .text          0x80009130        0x4 e:/uc-soft/ti/tirtos/gcc-arm-none-eabi-6-2017-q1-update/bin/../lib/gcc/arm-none-eabi/6.3.1/hard\libgcc.a(_dvmd_tls.o)
                0x80009130                __aeabi_idiv0
                0x80009130                __aeabi_ldiv0
 .text          0x80009134      0x2ac e:/uc-soft/ti/tirtos/gcc-arm-none-eabi-6-2017-q1-update/bin/../lib/gcc/arm-none-eabi/6.3.1/hard\libgcc.a(_arm_addsubsf3.o)
                0x80009134                __aeabi_frsub
                0x8000913c                __subsf3
                0x8000913c                __aeabi_fsub
                0x80009140                __aeabi_fadd
                0x80009140                __addsf3
                0x800092fc                __aeabi_ui2f
                0x800092fc                __floatunsisf
                0x80009304                __aeabi_i2f
                0x80009304                __floatsisf
                0x80009324                __aeabi_ul2f
                0x80009324                __floatundisf
                0x80009334                __aeabi_l2f
                0x80009334                __floatdisf
 .text          0x800093e0       0x3c e:/uc-soft/ti/tirtos/gcc-arm-none-eabi-6-2017-q1-update/bin/../lib/gcc/arm-none-eabi/6.3.1/hard\libgcc.a(_aeabi_uldivmod.o)
                0x800093e0                __aeabi_uldivmod
 *fill*         0x8000941c        0x4 
 .text          0x80009420       0x48 e:/uc-soft/ti/tirtos/gcc-arm-none-eabi-6-2017-q1-update/bin/../lib/gcc/arm-none-eabi/6.3.1/hard\libgcc.a(_fixunssfdi.o)
                0x80009420                __fixunssfdi
                0x80009420                __aeabi_f2ulz
 .text          0x80009468       0x48 e:/uc-soft/ti/tirtos/gcc-arm-none-eabi-6-2017-q1-update/bin/../lib/gcc/arm-none-eabi/6.3.1/hard\libgcc.a(_fixunsdfdi.o)
                0x80009468                __fixunsdfdi
                0x80009468                __aeabi_d2ulz
 .text          0x800094b0      0x12c e:/uc-soft/ti/tirtos/gcc-arm-none-eabi-6-2017-q1-update/bin/../lib/gcc/arm-none-eabi/6.3.1/hard\libgcc.a(_udivmoddi4.o)
                0x800094b0                __udivmoddi4
 .text          0x800095dc       0x28 e:/uc-soft/ti/tirtos/gcc-arm-none-eabi-6-2017-q1-update/bin/../lib/gcc/arm-none-eabi/6.3.1/hard\libgcc.a(_clzdi2.o)
                0x800095dc                __clzdi2
 .text          0x80009604       0x48 e:/uc-soft/ti/tirtos/gcc-arm-none-eabi-6-2017-q1-update/bin/../lib/gcc/arm-none-eabi/6.3.1/hard\libgcc.a(_clzsi2.o)
                0x80009604                __clzsi2
 .text.memcpy   0x8000964c       0x20 E:/uC-Soft/TI/TIRTOS/gcc-arm-none-eabi-6-2017-q1-update/arm-none-eabi/lib/hard\libc_nano.a(lib_a-memcpy-stub.o)
                0x8000964c                memcpy
 .text.memset   0x8000966c       0x1c E:/uC-Soft/TI/TIRTOS/gcc-arm-none-eabi-6-2017-q1-update/arm-none-eabi/lib/hard\libc_nano.a(lib_a-memset.o)
                0x8000966c                memset
 .text.strncmp  0x80009688       0x58 E:/uC-Soft/TI/TIRTOS/gcc-arm-none-eabi-6-2017-q1-update/arm-none-eabi/lib/hard\libc_nano.a(lib_a-strncmp.o)
                0x80009688                strncmp
 *(.rodata*)
 .rodata        0x800096e0      0x164 E:/uC-Soft/TI/TIRTOS/PDK_AM~1/packages/ti/starterware/binary/board/lib/am335x-evm/a8/debug/gcc\libboard.a(board.o)
 .rodata.BOARDINITPARAMS_DEFAULT
                0x80009844        0xc E:/uC-Soft/TI/TIRTOS/PDK_AM~1/packages/ti/starterware/binary/board/lib/am335x-evm/a8/debug/gcc\libboard.a(board.o)
                0x80009844                BOARDINITPARAMS_DEFAULT
 .rodata        0x80009850       0x3f E:/uC-Soft/TI/TIRTOS/PDK_AM~1/packages/ti/starterware/binary/board/lib/am335x-evm/a8/debug/gcc\libboard.a(board_am335x.o)
 *fill*         0x8000988f        0x1 
 .rodata.gBoardAm335xGpevmDevData
                0x80009890      0x1e0 E:/uC-Soft/TI/TIRTOS/PDK_AM~1/packages/ti/starterware/binary/board/lib/am335x-evm/a8/debug/gcc\libboard.a(am335x_gpevm.o)
                0x80009890                gBoardAm335xGpevmDevData
 .rodata        0x80009a70       0x7b E:/uC-Soft/TI/TIRTOS/PDK_AM~1/packages/ti/starterware/binary/board/lib/am335x-evm/a8/debug/gcc\libboard.a(am335x_gpevm.o)
 *fill*         0x80009aeb        0x1 
 .rodata.gBoardAm335xGpevmData
                0x80009aec       0x20 E:/uC-Soft/TI/TIRTOS/PDK_AM~1/packages/ti/starterware/binary/board/lib/am335x-evm/a8/debug/gcc\libboard.a(am335x_gpevm.o)
                0x80009aec                gBoardAm335xGpevmData
 .rodata.gBoardAm335xEvmskDevData
                0x80009b0c      0x118 E:/uC-Soft/TI/TIRTOS/PDK_AM~1/packages/ti/starterware/binary/board/lib/am335x-evm/a8/debug/gcc\libboard.a(am335x_evmsk.o)
                0x80009b0c                gBoardAm335xEvmskDevData
 .rodata        0x80009c24       0x15 E:/uC-Soft/TI/TIRTOS/PDK_AM~1/packages/ti/starterware/binary/board/lib/am335x-evm/a8/debug/gcc\libboard.a(am335x_evmsk.o)
 *fill*         0x80009c39        0x3 
 .rodata.gBoardAm335xEvmskData
                0x80009c3c       0x20 E:/uC-Soft/TI/TIRTOS/PDK_AM~1/packages/ti/starterware/binary/board/lib/am335x-evm/a8/debug/gcc\libboard.a(am335x_evmsk.o)
                0x80009c3c                gBoardAm335xEvmskData
 .rodata.gBoardAm335xBeagleboneDevData
                0x80009c5c       0xa0 E:/uC-Soft/TI/TIRTOS/PDK_AM~1/packages/ti/starterware/binary/board/lib/am335x-evm/a8/debug/gcc\libboard.a(am335x_beaglebone.o)
                0x80009c5c                gBoardAm335xBeagleboneDevData
 .rodata        0x80009cfc       0x2d E:/uC-Soft/TI/TIRTOS/PDK_AM~1/packages/ti/starterware/binary/board/lib/am335x-evm/a8/debug/gcc\libboard.a(am335x_beaglebone.o)
 *fill*         0x80009d29        0x3 
 .rodata.gBoardAm335xBeagleboneData
                0x80009d2c       0x20 E:/uC-Soft/TI/TIRTOS/PDK_AM~1/packages/ti/starterware/binary/board/lib/am335x-evm/a8/debug/gcc\libboard.a(am335x_beaglebone.o)
                0x80009d2c                gBoardAm335xBeagleboneData
 .rodata.gBoardAm335xBeagleBoneBlackIsCompatible
                0x80009d4c        0x4 E:/uC-Soft/TI/TIRTOS/PDK_AM~1/packages/ti/starterware/binary/board/lib/am335x-evm/a8/debug/gcc\libboard.a(am335x_beagleboneblack.o)
                0x80009d4c                gBoardAm335xBeagleBoneBlackIsCompatible
 .rodata.gBoardAm335xBeagleboneblackDevData
                0x80009d50       0xc8 E:/uC-Soft/TI/TIRTOS/PDK_AM~1/packages/ti/starterware/binary/board/lib/am335x-evm/a8/debug/gcc\libboard.a(am335x_beagleboneblack.o)
                0x80009d50                gBoardAm335xBeagleboneblackDevData
 .rodata        0x80009e18       0x58 E:/uC-Soft/TI/TIRTOS/PDK_AM~1/packages/ti/starterware/binary/board/lib/am335x-evm/a8/debug/gcc\libboard.a(am335x_beagleboneblack.o)
 .rodata.gBoardAm335xBeagleboneblackData
                0x80009e70       0x20 E:/uC-Soft/TI/TIRTOS/PDK_AM~1/packages/ti/starterware/binary/board/lib/am335x-evm/a8/debug/gcc\libboard.a(am335x_beagleboneblack.o)
                0x80009e70                gBoardAm335xBeagleboneblackData
 .rodata.gBoardAm335xIceV1DevData
                0x80009e90       0xc8 E:/uC-Soft/TI/TIRTOS/PDK_AM~1/packages/ti/starterware/binary/board/lib/am335x-evm/a8/debug/gcc\libboard.a(am335x_icev1.o)
                0x80009e90                gBoardAm335xIceV1DevData
 .rodata        0x80009f58       0x2d E:/uC-Soft/TI/TIRTOS/PDK_AM~1/packages/ti/starterware/binary/board/lib/am335x-evm/a8/debug/gcc\libboard.a(am335x_icev1.o)
 *fill*         0x80009f85        0x3 
 .rodata.gBoardAm335xIceV1Data
                0x80009f88       0x20 E:/uC-Soft/TI/TIRTOS/PDK_AM~1/packages/ti/starterware/binary/board/lib/am335x-evm/a8/debug/gcc\libboard.a(am335x_icev1.o)
                0x80009f88                gBoardAm335xIceV1Data
 .rodata.gBoardAm335xIceV2DevData
                0x80009fa8      0x398 E:/uC-Soft/TI/TIRTOS/PDK_AM~1/packages/ti/starterware/binary/board/lib/am335x-evm/a8/debug/gcc\libboard.a(am335x_icev2.o)
                0x80009fa8                gBoardAm335xIceV2DevData
 .rodata        0x8000a340       0x6f E:/uC-Soft/TI/TIRTOS/PDK_AM~1/packages/ti/starterware/binary/board/lib/am335x-evm/a8/debug/gcc\libboard.a(am335x_icev2.o)
 *fill*         0x8000a3af        0x1 
 .rodata.gBoardAm335xIceV2Data
                0x8000a3b0       0x20 E:/uC-Soft/TI/TIRTOS/PDK_AM~1/packages/ti/starterware/binary/board/lib/am335x-evm/a8/debug/gcc\libboard.a(am335x_icev2.o)
                0x8000a3b0                gBoardAm335xIceV2Data
 .rodata.gBoardAm335xAMIC110DevData
                0x8000a3d0      0x398 E:/uC-Soft/TI/TIRTOS/PDK_AM~1/packages/ti/starterware/binary/board/lib/am335x-evm/a8/debug/gcc\libboard.a(am335x_amic110.o)
                0x8000a3d0                gBoardAm335xAMIC110DevData
 .rodata        0x8000a768       0x6f E:/uC-Soft/TI/TIRTOS/PDK_AM~1/packages/ti/starterware/binary/board/lib/am335x-evm/a8/debug/gcc\libboard.a(am335x_amic110.o)
 *fill*         0x8000a7d7        0x1 
 .rodata.gBoardAm335xAMIC110Data
                0x8000a7d8       0x20 E:/uC-Soft/TI/TIRTOS/PDK_AM~1/packages/ti/starterware/binary/board/lib/am335x-evm/a8/debug/gcc\libboard.a(am335x_amic110.o)
                0x8000a7d8                gBoardAm335xAMIC110Data
 .rodata        0x8000a7f8        0x1 E:/uC-Soft/TI/TIRTOS/PDK_AM~1/packages/ti/starterware/binary/board/lib/am335x-evm/a8/debug/gcc\libboard.a(am335x_custom.o)
 *fill*         0x8000a7f9        0x3 
 .rodata.gBoardAm335xCustomData
                0x8000a7fc       0x20 E:/uC-Soft/TI/TIRTOS/PDK_AM~1/packages/ti/starterware/binary/board/lib/am335x-evm/a8/debug/gcc\libboard.a(am335x_custom.o)
                0x8000a7fc                gBoardAm335xCustomData
 .rodata.gDCardAm335xLCD4DevData
                0x8000a81c       0x50 E:/uC-Soft/TI/TIRTOS/PDK_AM~1/packages/ti/starterware/binary/board/lib/am335x-evm/a8/debug/gcc\libboard.a(am335x_lcd4_dcard.o)
                0x8000a81c                gDCardAm335xLCD4DevData
 .rodata        0x8000a86c       0x25 E:/uC-Soft/TI/TIRTOS/PDK_AM~1/packages/ti/starterware/binary/board/lib/am335x-evm/a8/debug/gcc\libboard.a(am335x_lcd4_dcard.o)
 *fill*         0x8000a891        0x3 
 .rodata.gDCardAm335xLCD4Data
                0x8000a894       0x44 E:/uC-Soft/TI/TIRTOS/PDK_AM~1/packages/ti/starterware/binary/board/lib/am335x-evm/a8/debug/gcc\libboard.a(am335x_lcd4_dcard.o)
                0x8000a894                gDCardAm335xLCD4Data
 .rodata        0x8000a8d8       0x50 E:/uC-Soft/TI/TIRTOS/PDK_AM~1/packages/ti/starterware/binary/utils/lib/am335x-evm/a8/debug/gcc\libutils.a(console_utils.o)
 .rodata.I2CUTILSINITPARAMS_DEFAULT
                0x8000a928       0x10 E:/uC-Soft/TI/TIRTOS/PDK_AM~1/packages/ti/starterware/binary/utils/lib/am335x-evm/a8/debug/gcc\libutils.a(i2c_utils.o)
                0x8000a928                I2CUTILSINITPARAMS_DEFAULT
 .rodata        0x8000a938       0x1e E:/uC-Soft/TI/TIRTOS/PDK_AM~1/packages/ti/starterware/binary/utils/lib/am335x-evm/a8/debug/gcc\libutils.a(console_utils_uart.o)
 *fill*         0x8000a956        0x2 
 .rodata.vecTbl
                0x8000a958       0x38 E:/uC-Soft/TI/TIRTOS/PDK_AM~1/packages/ti/starterware/binary/soc/lib/am335x-evm/a8/debug/gcc\libsoc.a(startup.o)
 .rodata.gChipDBResourceIDMap
                0x8000a990      0x244 E:/uC-Soft/TI/TIRTOS/PDK_AM~1/packages/ti/starterware/binary/soc/lib/am335x-evm/a8/debug/gcc\libsoc.a(hw_am335x_chipdb.o)
                0x8000a990                gChipDBResourceIDMap
 .rodata.gChipDBResourceTable
                0x8000abd4       0x18 E:/uC-Soft/TI/TIRTOS/PDK_AM~1/packages/ti/starterware/binary/soc/lib/am335x-evm/a8/debug/gcc\libsoc.a(hw_am335x_chipdb.o)
                0x8000abd4                gChipDBResourceTable
 .rodata.gChipDBBaseAddrTable
                0x8000abec      0x200 E:/uC-Soft/TI/TIRTOS/PDK_AM~1/packages/ti/starterware/binary/soc/lib/am335x-evm/a8/debug/gcc\libsoc.a(hw_am335x_chipdb_baseaddr.o)
                0x8000abec                gChipDBBaseAddrTable
 .rodata        0x8000adec       0x3d E:/uC-Soft/TI/TIRTOS/PDK_AM~1/packages/ti/starterware/binary/soc/lib/am335x-evm/a8/debug/gcc\libsoc.a(intc.o)
 *fill*         0x8000ae29        0x3 
 .rodata.gMmuAccessCtrl
                0x8000ae2c       0x1c E:/uC-Soft/TI/TIRTOS/PDK_AM~1/packages/ti/starterware/binary/soc/lib/am335x-evm/a8/debug/gcc\libsoc.a(mmu_arm.o)
 .rodata.gMmuMemAttr
                0x8000ae48       0x14 E:/uC-Soft/TI/TIRTOS/PDK_AM~1/packages/ti/starterware/binary/soc/lib/am335x-evm/a8/debug/gcc\libsoc.a(mmu_arm.o)

.glue_7         0x8000ae5c        0x0
 .glue_7        0x8000ae5c        0x0 linker stubs

.glue_7t        0x8000ae5c        0x0
 .glue_7t       0x8000ae5c        0x0 linker stubs

.vfp11_veneer   0x8000ae5c        0x0
 .vfp11_veneer  0x8000ae5c        0x0 linker stubs

.v4_bx          0x8000ae5c        0x0
 .v4_bx         0x8000ae5c        0x0 linker stubs

.init           0x8000ae5c        0xc
 .init          0x8000ae5c        0xc e:/uc-soft/ti/tirtos/gcc-arm-none-eabi-6-2017-q1-update/bin/../lib/gcc/arm-none-eabi/6.3.1/hard/crti.o
                0x8000ae5c                _init

.fini           0x8000ae68        0xc
 .fini          0x8000ae68        0xc e:/uc-soft/ti/tirtos/gcc-arm-none-eabi-6-2017-q1-update/bin/../lib/gcc/arm-none-eabi/6.3.1/hard/crti.o
                0x8000ae68                _fini

.iplt           0x8000ae74        0x0
 .iplt          0x8000ae74        0x0 e:/uc-soft/ti/tirtos/gcc-arm-none-eabi-6-2017-q1-update/bin/../lib/gcc/arm-none-eabi/6.3.1/hard/crtbegin.o

.rel.dyn        0x8000ae74        0x0
 .rel.iplt      0x8000ae74        0x0 e:/uc-soft/ti/tirtos/gcc-arm-none-eabi-6-2017-q1-update/bin/../lib/gcc/arm-none-eabi/6.3.1/hard/crtbegin.o

.ARM.exidx      0x8000ae74        0x8
 .ARM.exidx     0x8000ae74        0x8 e:/uc-soft/ti/tirtos/gcc-arm-none-eabi-6-2017-q1-update/bin/../lib/gcc/arm-none-eabi/6.3.1/hard\libgcc.a(_udivmoddi4.o)

.data           0x8000ae7c     0x1970
                0x8000ae7c                . = ALIGN (0x4)
 *(.data*)
 .data.UARTAPPOBJ_DEFAULT
                0x8000ae7c       0x74 E:/uC-Soft/TI/TIRTOS/PDK_AM~1/packages/ti/starterware/binary/uart_app_echo/obj/am335x-evm/a8host/debug/gcc/uart_app.o
                0x8000ae7c                UARTAPPOBJ_DEFAULT
 .data.gUartAppTxDataBuf
                0x8000aef0       0x3f E:/uC-Soft/TI/TIRTOS/PDK_AM~1/packages/ti/starterware/binary/uart_app_echo/obj/am335x-evm/a8host/debug/gcc/echo_app_main.o
 *fill*         0x8000af2f        0x1 
 .data.regionDdr
                0x8000af30       0x14 E:/uC-Soft/TI/TIRTOS/PDK_AM~1/packages/ti/starterware/binary/examples/example_utils/lib/am335x-evm/a8/debug/gcc\libexample_utils.a(example_utils_mmu.o)
                0x8000af30                regionDdr
 .data.regionOcmc
                0x8000af44       0x14 E:/uC-Soft/TI/TIRTOS/PDK_AM~1/packages/ti/starterware/binary/examples/example_utils/lib/am335x-evm/a8/debug/gcc\libexample_utils.a(example_utils_mmu.o)
                0x8000af44                regionOcmc
 .data.regionDev
                0x8000af58       0x14 E:/uC-Soft/TI/TIRTOS/PDK_AM~1/packages/ti/starterware/binary/examples/example_utils/lib/am335x-evm/a8/debug/gcc\libexample_utils.a(example_utils_mmu.o)
                0x8000af58                regionDev
 .data.regionQspi
                0x8000af6c       0x14 E:/uC-Soft/TI/TIRTOS/PDK_AM~1/packages/ti/starterware/binary/examples/example_utils/lib/am335x-evm/a8/debug/gcc\libexample_utils.a(example_utils_mmu.o)
                0x8000af6c                regionQspi
 .data.gBoardAm335xI2cInstData
                0x8000af80       0x20 E:/uC-Soft/TI/TIRTOS/PDK_AM~1/packages/ti/starterware/binary/board/lib/am335x-evm/a8/debug/gcc\libboard.a(board_am335x.o)
 .data.gBoardAm335xI2cData
                0x8000afa0        0xc E:/uC-Soft/TI/TIRTOS/PDK_AM~1/packages/ti/starterware/binary/board/lib/am335x-evm/a8/debug/gcc\libboard.a(board_am335x.o)
 .data.gpBoardAm335xData
                0x8000afac       0x44 E:/uC-Soft/TI/TIRTOS/PDK_AM~1/packages/ti/starterware/binary/board/lib/am335x-evm/a8/debug/gcc\libboard.a(board_am335x.o)
 .data.gpDCardAm335xData
                0x8000aff0        0x8 E:/uC-Soft/TI/TIRTOS/PDK_AM~1/packages/ti/starterware/binary/board/lib/am335x-evm/a8/debug/gcc\libboard.a(dcard_am335x.o)
 .data.gpBoardAm335xGpevmRevStrTable
                0x8000aff8       0x14 E:/uC-Soft/TI/TIRTOS/PDK_AM~1/packages/ti/starterware/binary/board/lib/am335x-evm/a8/debug/gcc\libboard.a(am335x_gpevm.o)
                0x8000aff8                gpBoardAm335xGpevmRevStrTable
 .data.gpBoardAm335xEvmskRevStrTable
                0x8000b00c        0xc E:/uC-Soft/TI/TIRTOS/PDK_AM~1/packages/ti/starterware/binary/board/lib/am335x-evm/a8/debug/gcc\libboard.a(am335x_evmsk.o)
                0x8000b00c                gpBoardAm335xEvmskRevStrTable
 .data.gpBoardAm335xBeagleboneRevStrTable
                0x8000b018       0x18 E:/uC-Soft/TI/TIRTOS/PDK_AM~1/packages/ti/starterware/binary/board/lib/am335x-evm/a8/debug/gcc\libboard.a(am335x_beaglebone.o)
                0x8000b018                gpBoardAm335xBeagleboneRevStrTable
 .data.gBoardAm335xBeagleboneblackDCards
                0x8000b030       0x18 E:/uC-Soft/TI/TIRTOS/PDK_AM~1/packages/ti/starterware/binary/board/lib/am335x-evm/a8/debug/gcc\libboard.a(am335x_beagleboneblack.o)
                0x8000b030                gBoardAm335xBeagleboneblackDCards
 .data.gpBoardAm335xBeagleboneblackRevStrTable
                0x8000b048        0xc E:/uC-Soft/TI/TIRTOS/PDK_AM~1/packages/ti/starterware/binary/board/lib/am335x-evm/a8/debug/gcc\libboard.a(am335x_beagleboneblack.o)
                0x8000b048                gpBoardAm335xBeagleboneblackRevStrTable
 .data.gpBoardAm335xIceV1RevStrTable
                0x8000b054       0x18 E:/uC-Soft/TI/TIRTOS/PDK_AM~1/packages/ti/starterware/binary/board/lib/am335x-evm/a8/debug/gcc\libboard.a(am335x_icev1.o)
                0x8000b054                gpBoardAm335xIceV1RevStrTable
 .data.gpBoardAm335xIceV2RevStrTable
                0x8000b06c       0x18 E:/uC-Soft/TI/TIRTOS/PDK_AM~1/packages/ti/starterware/binary/board/lib/am335x-evm/a8/debug/gcc\libboard.a(am335x_icev2.o)
                0x8000b06c                gpBoardAm335xIceV2RevStrTable
 .data.gpBoardAm335xAMIC110RevStrTable
                0x8000b084       0x18 E:/uC-Soft/TI/TIRTOS/PDK_AM~1/packages/ti/starterware/binary/board/lib/am335x-evm/a8/debug/gcc\libboard.a(am335x_amic110.o)
                0x8000b084                gpBoardAm335xAMIC110RevStrTable
 .data.gpBoardAm335xCustomRevStrTable
                0x8000b09c        0x4 E:/uC-Soft/TI/TIRTOS/PDK_AM~1/packages/ti/starterware/binary/board/lib/am335x-evm/a8/debug/gcc\libboard.a(am335x_custom.o)
                0x8000b09c                gpBoardAm335xCustomRevStrTable
 .data.gUart0PinCfg
                0x8000b0a0       0x18 E:/uC-Soft/TI/TIRTOS/PDK_AM~1/packages/ti/starterware/binary/board/lib/am335x-evm/a8/debug/gcc\libboard.a(am335x_gpevm_pinmux_data.o)
 .data.gUartPinCfg
                0x8000b0b8       0x10 E:/uC-Soft/TI/TIRTOS/PDK_AM~1/packages/ti/starterware/binary/board/lib/am335x-evm/a8/debug/gcc\libboard.a(am335x_gpevm_pinmux_data.o)
 .data.gCpsw0PinCfg
                0x8000b0c8       0x98 E:/uC-Soft/TI/TIRTOS/PDK_AM~1/packages/ti/starterware/binary/board/lib/am335x-evm/a8/debug/gcc\libboard.a(am335x_gpevm_pinmux_data.o)
 .data.gCpswPinCfg
                0x8000b160       0x10 E:/uC-Soft/TI/TIRTOS/PDK_AM~1/packages/ti/starterware/binary/board/lib/am335x-evm/a8/debug/gcc\libboard.a(am335x_gpevm_pinmux_data.o)
 .data.gDcan1PinCfg
                0x8000b170       0x18 E:/uC-Soft/TI/TIRTOS/PDK_AM~1/packages/ti/starterware/binary/board/lib/am335x-evm/a8/debug/gcc\libboard.a(am335x_gpevm_pinmux_data.o)
 .data.gDcanPinCfg
                0x8000b188       0x10 E:/uC-Soft/TI/TIRTOS/PDK_AM~1/packages/ti/starterware/binary/board/lib/am335x-evm/a8/debug/gcc\libboard.a(am335x_gpevm_pinmux_data.o)
 .data.gGpmc0PinCfg
                0x8000b198       0xc0 E:/uC-Soft/TI/TIRTOS/PDK_AM~1/packages/ti/starterware/binary/board/lib/am335x-evm/a8/debug/gcc\libboard.a(am335x_gpevm_pinmux_data.o)
 .data.gGpmcPinCfg
                0x8000b258       0x10 E:/uC-Soft/TI/TIRTOS/PDK_AM~1/packages/ti/starterware/binary/board/lib/am335x-evm/a8/debug/gcc\libboard.a(am335x_gpevm_pinmux_data.o)
 .data.gGpio1PinCfg
                0x8000b268       0x10 E:/uC-Soft/TI/TIRTOS/PDK_AM~1/packages/ti/starterware/binary/board/lib/am335x-evm/a8/debug/gcc\libboard.a(am335x_gpevm_pinmux_data.o)
 .data.gGpio0PinCfg
                0x8000b278       0x18 E:/uC-Soft/TI/TIRTOS/PDK_AM~1/packages/ti/starterware/binary/board/lib/am335x-evm/a8/debug/gcc\libboard.a(am335x_gpevm_pinmux_data.o)
 .data.gGpioPinCfg
                0x8000b290       0x18 E:/uC-Soft/TI/TIRTOS/PDK_AM~1/packages/ti/starterware/binary/board/lib/am335x-evm/a8/debug/gcc\libboard.a(am335x_gpevm_pinmux_data.o)
 .data.gI2c0PinCfg
                0x8000b2a8       0x18 E:/uC-Soft/TI/TIRTOS/PDK_AM~1/packages/ti/starterware/binary/board/lib/am335x-evm/a8/debug/gcc\libboard.a(am335x_gpevm_pinmux_data.o)
 .data.gI2c1PinCfg
                0x8000b2c0       0x18 E:/uC-Soft/TI/TIRTOS/PDK_AM~1/packages/ti/starterware/binary/board/lib/am335x-evm/a8/debug/gcc\libboard.a(am335x_gpevm_pinmux_data.o)
 .data.gI2cPinCfg
                0x8000b2d8       0x18 E:/uC-Soft/TI/TIRTOS/PDK_AM~1/packages/ti/starterware/binary/board/lib/am335x-evm/a8/debug/gcc\libboard.a(am335x_gpevm_pinmux_data.o)
 .data.gMcspi0PinCfg
                0x8000b2f0       0x28 E:/uC-Soft/TI/TIRTOS/PDK_AM~1/packages/ti/starterware/binary/board/lib/am335x-evm/a8/debug/gcc\libboard.a(am335x_gpevm_pinmux_data.o)
 .data.gMcspiPinCfg
                0x8000b318       0x10 E:/uC-Soft/TI/TIRTOS/PDK_AM~1/packages/ti/starterware/binary/board/lib/am335x-evm/a8/debug/gcc\libboard.a(am335x_gpevm_pinmux_data.o)
 .data.gMmcsd0PinCfg
                0x8000b328       0x40 E:/uC-Soft/TI/TIRTOS/PDK_AM~1/packages/ti/starterware/binary/board/lib/am335x-evm/a8/debug/gcc\libboard.a(am335x_gpevm_pinmux_data.o)
 .data.gMmcsdPinCfg
                0x8000b368       0x10 E:/uC-Soft/TI/TIRTOS/PDK_AM~1/packages/ti/starterware/binary/board/lib/am335x-evm/a8/debug/gcc\libboard.a(am335x_gpevm_pinmux_data.o)
 .data.gLcdc0PinCfg
                0x8000b378       0xf0 E:/uC-Soft/TI/TIRTOS/PDK_AM~1/packages/ti/starterware/binary/board/lib/am335x-evm/a8/debug/gcc\libboard.a(am335x_gpevm_pinmux_data.o)
 .data.gLcdcPinCfg
                0x8000b468       0x10 E:/uC-Soft/TI/TIRTOS/PDK_AM~1/packages/ti/starterware/binary/board/lib/am335x-evm/a8/debug/gcc\libboard.a(am335x_gpevm_pinmux_data.o)
 .data.gPwmss2PinCfg
                0x8000b478       0x10 E:/uC-Soft/TI/TIRTOS/PDK_AM~1/packages/ti/starterware/binary/board/lib/am335x-evm/a8/debug/gcc\libboard.a(am335x_gpevm_pinmux_data.o)
 .data.gPwmssPinCfg
                0x8000b488       0x10 E:/uC-Soft/TI/TIRTOS/PDK_AM~1/packages/ti/starterware/binary/board/lib/am335x-evm/a8/debug/gcc\libboard.a(am335x_gpevm_pinmux_data.o)
 .data.gGpevmPinmuxData
                0x8000b498       0x58 E:/uC-Soft/TI/TIRTOS/PDK_AM~1/packages/ti/starterware/binary/board/lib/am335x-evm/a8/debug/gcc\libboard.a(am335x_gpevm_pinmux_data.o)
                0x8000b498                gGpevmPinmuxData
 .data.gUart0PinCfg
                0x8000b4f0       0x18 E:/uC-Soft/TI/TIRTOS/PDK_AM~1/packages/ti/starterware/binary/board/lib/am335x-evm/a8/debug/gcc\libboard.a(am335x_evmsk_pinmux_data.o)
 .data.gUartPinCfg
                0x8000b508       0x10 E:/uC-Soft/TI/TIRTOS/PDK_AM~1/packages/ti/starterware/binary/board/lib/am335x-evm/a8/debug/gcc\libboard.a(am335x_evmsk_pinmux_data.o)
 .data.gCpsw0PinCfg
                0x8000b518       0xd8 E:/uC-Soft/TI/TIRTOS/PDK_AM~1/packages/ti/starterware/binary/board/lib/am335x-evm/a8/debug/gcc\libboard.a(am335x_evmsk_pinmux_data.o)
 .data.gCpswPinCfg
                0x8000b5f0       0x10 E:/uC-Soft/TI/TIRTOS/PDK_AM~1/packages/ti/starterware/binary/board/lib/am335x-evm/a8/debug/gcc\libboard.a(am335x_evmsk_pinmux_data.o)
 .data.gGpio0PinCfg
                0x8000b600       0x18 E:/uC-Soft/TI/TIRTOS/PDK_AM~1/packages/ti/starterware/binary/board/lib/am335x-evm/a8/debug/gcc\libboard.a(am335x_evmsk_pinmux_data.o)
 .data.gGpio1PinCfg
                0x8000b618       0x28 E:/uC-Soft/TI/TIRTOS/PDK_AM~1/packages/ti/starterware/binary/board/lib/am335x-evm/a8/debug/gcc\libboard.a(am335x_evmsk_pinmux_data.o)
 .data.gGpio2PinCfg
                0x8000b640       0x20 E:/uC-Soft/TI/TIRTOS/PDK_AM~1/packages/ti/starterware/binary/board/lib/am335x-evm/a8/debug/gcc\libboard.a(am335x_evmsk_pinmux_data.o)
 .data.gGpioPinCfg
                0x8000b660       0x20 E:/uC-Soft/TI/TIRTOS/PDK_AM~1/packages/ti/starterware/binary/board/lib/am335x-evm/a8/debug/gcc\libboard.a(am335x_evmsk_pinmux_data.o)
 .data.gI2c0PinCfg
                0x8000b680       0x18 E:/uC-Soft/TI/TIRTOS/PDK_AM~1/packages/ti/starterware/binary/board/lib/am335x-evm/a8/debug/gcc\libboard.a(am335x_evmsk_pinmux_data.o)
 .data.gI2cPinCfg
                0x8000b698       0x10 E:/uC-Soft/TI/TIRTOS/PDK_AM~1/packages/ti/starterware/binary/board/lib/am335x-evm/a8/debug/gcc\libboard.a(am335x_evmsk_pinmux_data.o)
 .data.gMmcsd0PinCfg
                0x8000b6a8       0x40 E:/uC-Soft/TI/TIRTOS/PDK_AM~1/packages/ti/starterware/binary/board/lib/am335x-evm/a8/debug/gcc\libboard.a(am335x_evmsk_pinmux_data.o)
 .data.gMmcsdPinCfg
                0x8000b6e8       0x10 E:/uC-Soft/TI/TIRTOS/PDK_AM~1/packages/ti/starterware/binary/board/lib/am335x-evm/a8/debug/gcc\libboard.a(am335x_evmsk_pinmux_data.o)
 .data.gEvmskPinmuxData
                0x8000b6f8       0x30 E:/uC-Soft/TI/TIRTOS/PDK_AM~1/packages/ti/starterware/binary/board/lib/am335x-evm/a8/debug/gcc\libboard.a(am335x_evmsk_pinmux_data.o)
                0x8000b6f8                gEvmskPinmuxData
 .data.gUart0PinCfg
                0x8000b728       0x18 E:/uC-Soft/TI/TIRTOS/PDK_AM~1/packages/ti/starterware/binary/board/lib/am335x-evm/a8/debug/gcc\libboard.a(am335x_beaglebone_pinmux_data.o)
 .data.gUartPinCfg
                0x8000b740       0x10 E:/uC-Soft/TI/TIRTOS/PDK_AM~1/packages/ti/starterware/binary/board/lib/am335x-evm/a8/debug/gcc\libboard.a(am335x_beaglebone_pinmux_data.o)
 .data.gCpsw0PinCfg
                0x8000b750       0x90 E:/uC-Soft/TI/TIRTOS/PDK_AM~1/packages/ti/starterware/binary/board/lib/am335x-evm/a8/debug/gcc\libboard.a(am335x_beaglebone_pinmux_data.o)
 .data.gCpswPinCfg
                0x8000b7e0       0x10 E:/uC-Soft/TI/TIRTOS/PDK_AM~1/packages/ti/starterware/binary/board/lib/am335x-evm/a8/debug/gcc\libboard.a(am335x_beaglebone_pinmux_data.o)
 .data.gGpio1PinCfg
                0x8000b7f0       0x10 E:/uC-Soft/TI/TIRTOS/PDK_AM~1/packages/ti/starterware/binary/board/lib/am335x-evm/a8/debug/gcc\libboard.a(am335x_beaglebone_pinmux_data.o)
 .data.gGpioPinCfg
                0x8000b800       0x10 E:/uC-Soft/TI/TIRTOS/PDK_AM~1/packages/ti/starterware/binary/board/lib/am335x-evm/a8/debug/gcc\libboard.a(am335x_beaglebone_pinmux_data.o)
 .data.gI2c0PinCfg
                0x8000b810       0x18 E:/uC-Soft/TI/TIRTOS/PDK_AM~1/packages/ti/starterware/binary/board/lib/am335x-evm/a8/debug/gcc\libboard.a(am335x_beaglebone_pinmux_data.o)
 .data.gI2cPinCfg
                0x8000b828       0x10 E:/uC-Soft/TI/TIRTOS/PDK_AM~1/packages/ti/starterware/binary/board/lib/am335x-evm/a8/debug/gcc\libboard.a(am335x_beaglebone_pinmux_data.o)
 .data.gMmcsd0PinCfg
                0x8000b838       0x40 E:/uC-Soft/TI/TIRTOS/PDK_AM~1/packages/ti/starterware/binary/board/lib/am335x-evm/a8/debug/gcc\libboard.a(am335x_beaglebone_pinmux_data.o)
 .data.gMmcsdPinCfg
                0x8000b878       0x10 E:/uC-Soft/TI/TIRTOS/PDK_AM~1/packages/ti/starterware/binary/board/lib/am335x-evm/a8/debug/gcc\libboard.a(am335x_beaglebone_pinmux_data.o)
 .data.gBbPinmuxData
                0x8000b888       0x30 E:/uC-Soft/TI/TIRTOS/PDK_AM~1/packages/ti/starterware/binary/board/lib/am335x-evm/a8/debug/gcc\libboard.a(am335x_beaglebone_pinmux_data.o)
                0x8000b888                gBbPinmuxData
 .data.gUart0PinCfg
                0x8000b8b8       0x18 E:/uC-Soft/TI/TIRTOS/PDK_AM~1/packages/ti/starterware/binary/board/lib/am335x-evm/a8/debug/gcc\libboard.a(am335x_beagleboneblack_pinmux_data.o)
 .data.gUartPinCfg
                0x8000b8d0       0x10 E:/uC-Soft/TI/TIRTOS/PDK_AM~1/packages/ti/starterware/binary/board/lib/am335x-evm/a8/debug/gcc\libboard.a(am335x_beagleboneblack_pinmux_data.o)
 .data.gCpsw0PinCfg
                0x8000b8e0       0x90 E:/uC-Soft/TI/TIRTOS/PDK_AM~1/packages/ti/starterware/binary/board/lib/am335x-evm/a8/debug/gcc\libboard.a(am335x_beagleboneblack_pinmux_data.o)
 .data.gCpswPinCfg
                0x8000b970       0x10 E:/uC-Soft/TI/TIRTOS/PDK_AM~1/packages/ti/starterware/binary/board/lib/am335x-evm/a8/debug/gcc\libboard.a(am335x_beagleboneblack_pinmux_data.o)
 .data.gGpio1PinCfg
                0x8000b980       0x30 E:/uC-Soft/TI/TIRTOS/PDK_AM~1/packages/ti/starterware/binary/board/lib/am335x-evm/a8/debug/gcc\libboard.a(am335x_beagleboneblack_pinmux_data.o)
 .data.gGpio3PinCfg
                0x8000b9b0       0x10 E:/uC-Soft/TI/TIRTOS/PDK_AM~1/packages/ti/starterware/binary/board/lib/am335x-evm/a8/debug/gcc\libboard.a(am335x_beagleboneblack_pinmux_data.o)
 .data.gGpioPinCfg
                0x8000b9c0       0x18 E:/uC-Soft/TI/TIRTOS/PDK_AM~1/packages/ti/starterware/binary/board/lib/am335x-evm/a8/debug/gcc\libboard.a(am335x_beagleboneblack_pinmux_data.o)
 .data.gI2c0PinCfg
                0x8000b9d8       0x18 E:/uC-Soft/TI/TIRTOS/PDK_AM~1/packages/ti/starterware/binary/board/lib/am335x-evm/a8/debug/gcc\libboard.a(am335x_beagleboneblack_pinmux_data.o)
 .data.gI2cPinCfg
                0x8000b9f0       0x10 E:/uC-Soft/TI/TIRTOS/PDK_AM~1/packages/ti/starterware/binary/board/lib/am335x-evm/a8/debug/gcc\libboard.a(am335x_beagleboneblack_pinmux_data.o)
 .data.gMcspi1PinCfg
                0x8000ba00       0x28 E:/uC-Soft/TI/TIRTOS/PDK_AM~1/packages/ti/starterware/binary/board/lib/am335x-evm/a8/debug/gcc\libboard.a(am335x_beagleboneblack_pinmux_data.o)
 .data.gMcspi0PinCfg
                0x8000ba28       0x28 E:/uC-Soft/TI/TIRTOS/PDK_AM~1/packages/ti/starterware/binary/board/lib/am335x-evm/a8/debug/gcc\libboard.a(am335x_beagleboneblack_pinmux_data.o)
 .data.gMcspiPinCfg
                0x8000ba50       0x18 E:/uC-Soft/TI/TIRTOS/PDK_AM~1/packages/ti/starterware/binary/board/lib/am335x-evm/a8/debug/gcc\libboard.a(am335x_beagleboneblack_pinmux_data.o)
 .data.gMmcsd0PinCfg
                0x8000ba68       0x40 E:/uC-Soft/TI/TIRTOS/PDK_AM~1/packages/ti/starterware/binary/board/lib/am335x-evm/a8/debug/gcc\libboard.a(am335x_beagleboneblack_pinmux_data.o)
 .data.gMmcsdPinCfg
                0x8000baa8       0x10 E:/uC-Soft/TI/TIRTOS/PDK_AM~1/packages/ti/starterware/binary/board/lib/am335x-evm/a8/debug/gcc\libboard.a(am335x_beagleboneblack_pinmux_data.o)
 .data.gLcdc0PinCfg
                0x8000bab8       0xf0 E:/uC-Soft/TI/TIRTOS/PDK_AM~1/packages/ti/starterware/binary/board/lib/am335x-evm/a8/debug/gcc\libboard.a(am335x_beagleboneblack_pinmux_data.o)
 .data.gLcdcPinCfg
                0x8000bba8       0x10 E:/uC-Soft/TI/TIRTOS/PDK_AM~1/packages/ti/starterware/binary/board/lib/am335x-evm/a8/debug/gcc\libboard.a(am335x_beagleboneblack_pinmux_data.o)
 .data.gBbbPinmuxData
                0x8000bbb8       0x40 E:/uC-Soft/TI/TIRTOS/PDK_AM~1/packages/ti/starterware/binary/board/lib/am335x-evm/a8/debug/gcc\libboard.a(am335x_beagleboneblack_pinmux_data.o)
                0x8000bbb8                gBbbPinmuxData
 .data.gUart0PinCfg
                0x8000bbf8       0x18 E:/uC-Soft/TI/TIRTOS/PDK_AM~1/packages/ti/starterware/binary/board/lib/am335x-evm/a8/debug/gcc\libboard.a(am335x_icev1_pinmux_data.o)
 .data.gUart1PinCfg
                0x8000bc10       0x18 E:/uC-Soft/TI/TIRTOS/PDK_AM~1/packages/ti/starterware/binary/board/lib/am335x-evm/a8/debug/gcc\libboard.a(am335x_icev1_pinmux_data.o)
 .data.gUart3PinCfg
                0x8000bc28       0x18 E:/uC-Soft/TI/TIRTOS/PDK_AM~1/packages/ti/starterware/binary/board/lib/am335x-evm/a8/debug/gcc\libboard.a(am335x_icev1_pinmux_data.o)
 .data.gUart4PinCfg
                0x8000bc40       0x18 E:/uC-Soft/TI/TIRTOS/PDK_AM~1/packages/ti/starterware/binary/board/lib/am335x-evm/a8/debug/gcc\libboard.a(am335x_icev1_pinmux_data.o)
 .data.gUart5PinCfg
                0x8000bc58       0x18 E:/uC-Soft/TI/TIRTOS/PDK_AM~1/packages/ti/starterware/binary/board/lib/am335x-evm/a8/debug/gcc\libboard.a(am335x_icev1_pinmux_data.o)
 .data.gUartPinCfg
                0x8000bc70       0x30 E:/uC-Soft/TI/TIRTOS/PDK_AM~1/packages/ti/starterware/binary/board/lib/am335x-evm/a8/debug/gcc\libboard.a(am335x_icev1_pinmux_data.o)
 .data.gGpio0PinCfg
                0x8000bca0       0x10 E:/uC-Soft/TI/TIRTOS/PDK_AM~1/packages/ti/starterware/binary/board/lib/am335x-evm/a8/debug/gcc\libboard.a(am335x_icev1_pinmux_data.o)
 .data.gGpioPinCfg
                0x8000bcb0       0x10 E:/uC-Soft/TI/TIRTOS/PDK_AM~1/packages/ti/starterware/binary/board/lib/am335x-evm/a8/debug/gcc\libboard.a(am335x_icev1_pinmux_data.o)
 .data.gI2c0PinCfg
                0x8000bcc0       0x18 E:/uC-Soft/TI/TIRTOS/PDK_AM~1/packages/ti/starterware/binary/board/lib/am335x-evm/a8/debug/gcc\libboard.a(am335x_icev1_pinmux_data.o)
 .data.gI2cPinCfg
                0x8000bcd8       0x10 E:/uC-Soft/TI/TIRTOS/PDK_AM~1/packages/ti/starterware/binary/board/lib/am335x-evm/a8/debug/gcc\libboard.a(am335x_icev1_pinmux_data.o)
 .data.gMcspi0PinCfg
                0x8000bce8       0x28 E:/uC-Soft/TI/TIRTOS/PDK_AM~1/packages/ti/starterware/binary/board/lib/am335x-evm/a8/debug/gcc\libboard.a(am335x_icev1_pinmux_data.o)
 .data.gMcspiPinCfg
                0x8000bd10       0x10 E:/uC-Soft/TI/TIRTOS/PDK_AM~1/packages/ti/starterware/binary/board/lib/am335x-evm/a8/debug/gcc\libboard.a(am335x_icev1_pinmux_data.o)
 .data.gMmcsd1PinCfg
                0x8000bd20       0x40 E:/uC-Soft/TI/TIRTOS/PDK_AM~1/packages/ti/starterware/binary/board/lib/am335x-evm/a8/debug/gcc\libboard.a(am335x_icev1_pinmux_data.o)
 .data.gMmcsdPinCfg
                0x8000bd60       0x10 E:/uC-Soft/TI/TIRTOS/PDK_AM~1/packages/ti/starterware/binary/board/lib/am335x-evm/a8/debug/gcc\libboard.a(am335x_icev1_pinmux_data.o)
 .data.gIceV1PinmuxData
                0x8000bd70       0x30 E:/uC-Soft/TI/TIRTOS/PDK_AM~1/packages/ti/starterware/binary/board/lib/am335x-evm/a8/debug/gcc\libboard.a(am335x_icev1_pinmux_data.o)
                0x8000bd70                gIceV1PinmuxData
 .data.gUart0PinCfg
                0x8000bda0       0x18 E:/uC-Soft/TI/TIRTOS/PDK_AM~1/packages/ti/starterware/binary/board/lib/am335x-evm/a8/debug/gcc\libboard.a(am335x_icev2_pinmux_data.o)
 .data.gUart1PinCfg
                0x8000bdb8       0x18 E:/uC-Soft/TI/TIRTOS/PDK_AM~1/packages/ti/starterware/binary/board/lib/am335x-evm/a8/debug/gcc\libboard.a(am335x_icev2_pinmux_data.o)
 .data.gUart3PinCfg
                0x8000bdd0       0x18 E:/uC-Soft/TI/TIRTOS/PDK_AM~1/packages/ti/starterware/binary/board/lib/am335x-evm/a8/debug/gcc\libboard.a(am335x_icev2_pinmux_data.o)
 .data.gUart4PinCfg
                0x8000bde8       0x18 E:/uC-Soft/TI/TIRTOS/PDK_AM~1/packages/ti/starterware/binary/board/lib/am335x-evm/a8/debug/gcc\libboard.a(am335x_icev2_pinmux_data.o)
 .data.gUartPinCfg
                0x8000be00       0x28 E:/uC-Soft/TI/TIRTOS/PDK_AM~1/packages/ti/starterware/binary/board/lib/am335x-evm/a8/debug/gcc\libboard.a(am335x_icev2_pinmux_data.o)
 .data.gCpsw0PinCfg
                0x8000be28       0x98 E:/uC-Soft/TI/TIRTOS/PDK_AM~1/packages/ti/starterware/binary/board/lib/am335x-evm/a8/debug/gcc\libboard.a(am335x_icev2_pinmux_data.o)
 .data.gCpswPinCfg
                0x8000bec0       0x10 E:/uC-Soft/TI/TIRTOS/PDK_AM~1/packages/ti/starterware/binary/board/lib/am335x-evm/a8/debug/gcc\libboard.a(am335x_icev2_pinmux_data.o)
 .data.gGpio0PinCfg
                0x8000bed0       0x58 E:/uC-Soft/TI/TIRTOS/PDK_AM~1/packages/ti/starterware/binary/board/lib/am335x-evm/a8/debug/gcc\libboard.a(am335x_icev2_pinmux_data.o)
 .data.gGpio1PinCfg
                0x8000bf28       0x20 E:/uC-Soft/TI/TIRTOS/PDK_AM~1/packages/ti/starterware/binary/board/lib/am335x-evm/a8/debug/gcc\libboard.a(am335x_icev2_pinmux_data.o)
 .data.gGpio2PinCfg
                0x8000bf48       0x10 E:/uC-Soft/TI/TIRTOS/PDK_AM~1/packages/ti/starterware/binary/board/lib/am335x-evm/a8/debug/gcc\libboard.a(am335x_icev2_pinmux_data.o)
 .data.gGpio3PinCfg
                0x8000bf58       0x30 E:/uC-Soft/TI/TIRTOS/PDK_AM~1/packages/ti/starterware/binary/board/lib/am335x-evm/a8/debug/gcc\libboard.a(am335x_icev2_pinmux_data.o)
 .data.gGpioPinCfg
                0x8000bf88       0x28 E:/uC-Soft/TI/TIRTOS/PDK_AM~1/packages/ti/starterware/binary/board/lib/am335x-evm/a8/debug/gcc\libboard.a(am335x_icev2_pinmux_data.o)
 .data.gGpmc0PinCfg
                0x8000bfb0       0x28 E:/uC-Soft/TI/TIRTOS/PDK_AM~1/packages/ti/starterware/binary/board/lib/am335x-evm/a8/debug/gcc\libboard.a(am335x_icev2_pinmux_data.o)
 .data.gGpmcPinCfg
                0x8000bfd8       0x10 E:/uC-Soft/TI/TIRTOS/PDK_AM~1/packages/ti/starterware/binary/board/lib/am335x-evm/a8/debug/gcc\libboard.a(am335x_icev2_pinmux_data.o)
 .data.gPru_icss1PinCfg
                0x8000bfe8      0x140 E:/uC-Soft/TI/TIRTOS/PDK_AM~1/packages/ti/starterware/binary/board/lib/am335x-evm/a8/debug/gcc\libboard.a(am335x_icev2_pinmux_data.o)
 .data.gPru_icssPinCfg
                0x8000c128       0x10 E:/uC-Soft/TI/TIRTOS/PDK_AM~1/packages/ti/starterware/binary/board/lib/am335x-evm/a8/debug/gcc\libboard.a(am335x_icev2_pinmux_data.o)
 .data.gI2c0PinCfg
                0x8000c138       0x18 E:/uC-Soft/TI/TIRTOS/PDK_AM~1/packages/ti/starterware/binary/board/lib/am335x-evm/a8/debug/gcc\libboard.a(am335x_icev2_pinmux_data.o)
 .data.gI2cPinCfg
                0x8000c150       0x10 E:/uC-Soft/TI/TIRTOS/PDK_AM~1/packages/ti/starterware/binary/board/lib/am335x-evm/a8/debug/gcc\libboard.a(am335x_icev2_pinmux_data.o)
 .data.gMcspi0PinCfg
                0x8000c160       0x30 E:/uC-Soft/TI/TIRTOS/PDK_AM~1/packages/ti/starterware/binary/board/lib/am335x-evm/a8/debug/gcc\libboard.a(am335x_icev2_pinmux_data.o)
 .data.gMcspi1PinCfg
                0x8000c190       0x28 E:/uC-Soft/TI/TIRTOS/PDK_AM~1/packages/ti/starterware/binary/board/lib/am335x-evm/a8/debug/gcc\libboard.a(am335x_icev2_pinmux_data.o)
 .data.gMcspiPinCfg
                0x8000c1b8       0x18 E:/uC-Soft/TI/TIRTOS/PDK_AM~1/packages/ti/starterware/binary/board/lib/am335x-evm/a8/debug/gcc\libboard.a(am335x_icev2_pinmux_data.o)
 .data.gMmcsd0PinCfg
                0x8000c1d0       0x38 E:/uC-Soft/TI/TIRTOS/PDK_AM~1/packages/ti/starterware/binary/board/lib/am335x-evm/a8/debug/gcc\libboard.a(am335x_icev2_pinmux_data.o)
 .data.gMmcsdPinCfg
                0x8000c208       0x10 E:/uC-Soft/TI/TIRTOS/PDK_AM~1/packages/ti/starterware/binary/board/lib/am335x-evm/a8/debug/gcc\libboard.a(am335x_icev2_pinmux_data.o)
 .data.gIceV2PinmuxData
                0x8000c218       0x48 E:/uC-Soft/TI/TIRTOS/PDK_AM~1/packages/ti/starterware/binary/board/lib/am335x-evm/a8/debug/gcc\libboard.a(am335x_icev2_pinmux_data.o)
                0x8000c218                gIceV2PinmuxData
 .data.gAdc0PinCfg
                0x8000c260        0x8 E:/uC-Soft/TI/TIRTOS/PDK_AM~1/packages/ti/starterware/binary/board/lib/am335x-evm/a8/debug/gcc\libboard.a(am335x_amic11x_pinmux_data.o)
 .data.gAdcPinCfg
                0x8000c268       0x10 E:/uC-Soft/TI/TIRTOS/PDK_AM~1/packages/ti/starterware/binary/board/lib/am335x-evm/a8/debug/gcc\libboard.a(am335x_amic11x_pinmux_data.o)
 .data.gPru_icss1PinCfg
                0x8000c278      0x140 E:/uC-Soft/TI/TIRTOS/PDK_AM~1/packages/ti/starterware/binary/board/lib/am335x-evm/a8/debug/gcc\libboard.a(am335x_amic11x_pinmux_data.o)
 .data.gPru_icssPinCfg
                0x8000c3b8       0x10 E:/uC-Soft/TI/TIRTOS/PDK_AM~1/packages/ti/starterware/binary/board/lib/am335x-evm/a8/debug/gcc\libboard.a(am335x_amic11x_pinmux_data.o)
 .data.gI2c0PinCfg
                0x8000c3c8       0x18 E:/uC-Soft/TI/TIRTOS/PDK_AM~1/packages/ti/starterware/binary/board/lib/am335x-evm/a8/debug/gcc\libboard.a(am335x_amic11x_pinmux_data.o)
 .data.gI2cPinCfg
                0x8000c3e0       0x10 E:/uC-Soft/TI/TIRTOS/PDK_AM~1/packages/ti/starterware/binary/board/lib/am335x-evm/a8/debug/gcc\libboard.a(am335x_amic11x_pinmux_data.o)
 .data.gMcspi0PinCfg
                0x8000c3f0       0x30 E:/uC-Soft/TI/TIRTOS/PDK_AM~1/packages/ti/starterware/binary/board/lib/am335x-evm/a8/debug/gcc\libboard.a(am335x_amic11x_pinmux_data.o)
 .data.gMcspi1PinCfg
                0x8000c420       0x28 E:/uC-Soft/TI/TIRTOS/PDK_AM~1/packages/ti/starterware/binary/board/lib/am335x-evm/a8/debug/gcc\libboard.a(am335x_amic11x_pinmux_data.o)
 .data.gMcspiPinCfg
                0x8000c448       0x18 E:/uC-Soft/TI/TIRTOS/PDK_AM~1/packages/ti/starterware/binary/board/lib/am335x-evm/a8/debug/gcc\libboard.a(am335x_amic11x_pinmux_data.o)
 .data.gGpio3PinCfg
                0x8000c460       0x38 E:/uC-Soft/TI/TIRTOS/PDK_AM~1/packages/ti/starterware/binary/board/lib/am335x-evm/a8/debug/gcc\libboard.a(am335x_amic11x_pinmux_data.o)
 .data.gGpio0PinCfg
                0x8000c498       0x30 E:/uC-Soft/TI/TIRTOS/PDK_AM~1/packages/ti/starterware/binary/board/lib/am335x-evm/a8/debug/gcc\libboard.a(am335x_amic11x_pinmux_data.o)
 .data.gGpio1PinCfg
                0x8000c4c8       0x38 E:/uC-Soft/TI/TIRTOS/PDK_AM~1/packages/ti/starterware/binary/board/lib/am335x-evm/a8/debug/gcc\libboard.a(am335x_amic11x_pinmux_data.o)
 .data.gGpio2PinCfg
                0x8000c500       0x38 E:/uC-Soft/TI/TIRTOS/PDK_AM~1/packages/ti/starterware/binary/board/lib/am335x-evm/a8/debug/gcc\libboard.a(am335x_amic11x_pinmux_data.o)
 .data.gGpioPinCfg
                0x8000c538       0x28 E:/uC-Soft/TI/TIRTOS/PDK_AM~1/packages/ti/starterware/binary/board/lib/am335x-evm/a8/debug/gcc\libboard.a(am335x_amic11x_pinmux_data.o)
 .data.gMcasp1PinCfg
                0x8000c560       0x28 E:/uC-Soft/TI/TIRTOS/PDK_AM~1/packages/ti/starterware/binary/board/lib/am335x-evm/a8/debug/gcc\libboard.a(am335x_amic11x_pinmux_data.o)
 .data.gMcaspPinCfg
                0x8000c588       0x10 E:/uC-Soft/TI/TIRTOS/PDK_AM~1/packages/ti/starterware/binary/board/lib/am335x-evm/a8/debug/gcc\libboard.a(am335x_amic11x_pinmux_data.o)
 .data.gGlue0PinCfg
                0x8000c598       0x18 E:/uC-Soft/TI/TIRTOS/PDK_AM~1/packages/ti/starterware/binary/board/lib/am335x-evm/a8/debug/gcc\libboard.a(am335x_amic11x_pinmux_data.o)
 .data.gGluePinCfg
                0x8000c5b0       0x10 E:/uC-Soft/TI/TIRTOS/PDK_AM~1/packages/ti/starterware/binary/board/lib/am335x-evm/a8/debug/gcc\libboard.a(am335x_amic11x_pinmux_data.o)
 .data.gEmif4PinCfg
                0x8000c5c0        0x8 E:/uC-Soft/TI/TIRTOS/PDK_AM~1/packages/ti/starterware/binary/board/lib/am335x-evm/a8/debug/gcc\libboard.a(am335x_amic11x_pinmux_data.o)
 .data.gEmifPinCfg
                0x8000c5c8       0x10 E:/uC-Soft/TI/TIRTOS/PDK_AM~1/packages/ti/starterware/binary/board/lib/am335x-evm/a8/debug/gcc\libboard.a(am335x_amic11x_pinmux_data.o)
 .data.gUart0PinCfg
                0x8000c5d8       0x18 E:/uC-Soft/TI/TIRTOS/PDK_AM~1/packages/ti/starterware/binary/board/lib/am335x-evm/a8/debug/gcc\libboard.a(am335x_amic11x_pinmux_data.o)
 .data.gUart1PinCfg
                0x8000c5f0       0x18 E:/uC-Soft/TI/TIRTOS/PDK_AM~1/packages/ti/starterware/binary/board/lib/am335x-evm/a8/debug/gcc\libboard.a(am335x_amic11x_pinmux_data.o)
 .data.gUartPinCfg
                0x8000c608       0x18 E:/uC-Soft/TI/TIRTOS/PDK_AM~1/packages/ti/starterware/binary/board/lib/am335x-evm/a8/debug/gcc\libboard.a(am335x_amic11x_pinmux_data.o)
 .data.gOsc0PinCfg
                0x8000c620        0x8 E:/uC-Soft/TI/TIRTOS/PDK_AM~1/packages/ti/starterware/binary/board/lib/am335x-evm/a8/debug/gcc\libboard.a(am335x_amic11x_pinmux_data.o)
 .data.gOscPinCfg
                0x8000c628       0x10 E:/uC-Soft/TI/TIRTOS/PDK_AM~1/packages/ti/starterware/binary/board/lib/am335x-evm/a8/debug/gcc\libboard.a(am335x_amic11x_pinmux_data.o)
 .data.gRtc0PinCfg
                0x8000c638       0x28 E:/uC-Soft/TI/TIRTOS/PDK_AM~1/packages/ti/starterware/binary/board/lib/am335x-evm/a8/debug/gcc\libboard.a(am335x_amic11x_pinmux_data.o)
 .data.gRtcPinCfg
                0x8000c660       0x10 E:/uC-Soft/TI/TIRTOS/PDK_AM~1/packages/ti/starterware/binary/board/lib/am335x-evm/a8/debug/gcc\libboard.a(am335x_amic11x_pinmux_data.o)
 .data.gDebugss0PinCfg
                0x8000c670       0x48 E:/uC-Soft/TI/TIRTOS/PDK_AM~1/packages/ti/starterware/binary/board/lib/am335x-evm/a8/debug/gcc\libboard.a(am335x_amic11x_pinmux_data.o)
 .data.gDebugssPinCfg
                0x8000c6b8       0x10 E:/uC-Soft/TI/TIRTOS/PDK_AM~1/packages/ti/starterware/binary/board/lib/am335x-evm/a8/debug/gcc\libboard.a(am335x_amic11x_pinmux_data.o)
 .data.gAMIC11xPinmuxData
                0x8000c6c8       0x68 E:/uC-Soft/TI/TIRTOS/PDK_AM~1/packages/ti/starterware/binary/board/lib/am335x-evm/a8/debug/gcc\libboard.a(am335x_amic11x_pinmux_data.o)
                0x8000c6c8                gAMIC11xPinmuxData
 .data.gpDCardAm335xLCD4RevStrTable
                0x8000c730        0x8 E:/uC-Soft/TI/TIRTOS/PDK_AM~1/packages/ti/starterware/binary/board/lib/am335x-evm/a8/debug/gcc\libboard.a(am335x_lcd4_dcard.o)
                0x8000c730                gpDCardAm335xLCD4RevStrTable
 .data.gDCardAM335xLCD4I2cSlaveAddrRange
                0x8000c738       0x10 E:/uC-Soft/TI/TIRTOS/PDK_AM~1/packages/ti/starterware/binary/board/lib/am335x-evm/a8/debug/gcc\libboard.a(am335x_lcd4_dcard.o)
                0x8000c738                gDCardAM335xLCD4I2cSlaveAddrRange
 .data.gDCardAm335xLCD4I2cInstData
                0x8000c748       0x80 E:/uC-Soft/TI/TIRTOS/PDK_AM~1/packages/ti/starterware/binary/board/lib/am335x-evm/a8/debug/gcc\libboard.a(am335x_lcd4_dcard.o)
                0x8000c748                gDCardAm335xLCD4I2cInstData
 .data.gDCardAm335xLCD4EepromDataFormat
                0x8000c7c8       0x20 E:/uC-Soft/TI/TIRTOS/PDK_AM~1/packages/ti/starterware/binary/board/lib/am335x-evm/a8/debug/gcc\libboard.a(am335x_lcd4_dcard.o)
                0x8000c7c8                gDCardAm335xLCD4EepromDataFormat
 .data.gChipDBEnabled
                0x8000c7e8        0x4 E:/uC-Soft/TI/TIRTOS/PDK_AM~1/packages/ti/starterware/binary/soc/lib/am335x-evm/a8/debug/gcc\libsoc.a(am335x_chipdb.o)

.igot.plt       0x8000c7ec        0x0
 .igot.plt      0x8000c7ec        0x0 e:/uc-soft/ti/tirtos/gcc-arm-none-eabi-6-2017-q1-update/bin/../lib/gcc/arm-none-eabi/6.3.1/hard/crtbegin.o

.bss            0x80010000     0x803d
                0x80010000                . = ALIGN (0x4)
                0x80010000                _bss_start = .
 *(.bss*)
 .bss.gUartAppObj
                0x80010000       0x74 E:/uC-Soft/TI/TIRTOS/PDK_AM~1/packages/ti/starterware/binary/uart_app_echo/obj/am335x-evm/a8host/debug/gcc/echo_app_main.o
 .bss.gBoardCommonObj
                0x80010074        0xc E:/uC-Soft/TI/TIRTOS/PDK_AM~1/packages/ti/starterware/binary/board/lib/am335x-evm/a8/debug/gcc\libboard.a(board.o)
 .bss.pBoardData
                0x80010080        0x4 E:/uC-Soft/TI/TIRTOS/PDK_AM~1/packages/ti/starterware/binary/board/lib/am335x-evm/a8/debug/gcc\libboard.a(pinmux.o)
 .bss.gBoardAm335xObj
                0x80010084        0xc E:/uC-Soft/TI/TIRTOS/PDK_AM~1/packages/ti/starterware/binary/board/lib/am335x-evm/a8/debug/gcc\libboard.a(board_am335x.o)
 .bss.gBoardDataEeprom
                0x80010090       0x1c E:/uC-Soft/TI/TIRTOS/PDK_AM~1/packages/ti/starterware/binary/board/lib/am335x-evm/a8/debug/gcc\libboard.a(board_am335x.o)
 .bss.gpBoardDataEeprom
                0x800100ac        0x4 E:/uC-Soft/TI/TIRTOS/PDK_AM~1/packages/ti/starterware/binary/board/lib/am335x-evm/a8/debug/gcc\libboard.a(board_am335x.o)
 .bss.gEepromOffset
                0x800100b0        0x2 E:/uC-Soft/TI/TIRTOS/PDK_AM~1/packages/ti/starterware/binary/board/lib/am335x-evm/a8/debug/gcc\libboard.a(board_am335x.o)
 *fill*         0x800100b2        0x2 
 .bss.gBoardAm335xBeagleBoneBlackIsDCardPresent
                0x800100b4        0x2 E:/uC-Soft/TI/TIRTOS/PDK_AM~1/packages/ti/starterware/binary/board/lib/am335x-evm/a8/debug/gcc\libboard.a(am335x_beagleboneblack.o)
                0x800100b4                gBoardAm335xBeagleBoneBlackIsDCardPresent
 *fill*         0x800100b6        0x2 
 .bss.gBoardAm335xBeagleboneblackDCardsList
                0x800100b8        0x8 E:/uC-Soft/TI/TIRTOS/PDK_AM~1/packages/ti/starterware/binary/board/lib/am335x-evm/a8/debug/gcc\libboard.a(am335x_beagleboneblack.o)
                0x800100b8                gBoardAm335xBeagleboneblackDCardsList
 .bss.gBoardAm335xIceV2PhyResetStatus
                0x800100c0        0x4 E:/uC-Soft/TI/TIRTOS/PDK_AM~1/packages/ti/starterware/binary/board/lib/am335x-evm/a8/debug/gcc\libboard.a(am335x_icev2.o)
 .bss.gBoardAm335xAMIC110PhyResetStatus
                0x800100c4        0x4 E:/uC-Soft/TI/TIRTOS/PDK_AM~1/packages/ti/starterware/binary/board/lib/am335x-evm/a8/debug/gcc\libboard.a(am335x_amic110.o)
 .bss.gDCardAm335xLCD4EepromOffset
                0x800100c8        0x2 E:/uC-Soft/TI/TIRTOS/PDK_AM~1/packages/ti/starterware/binary/board/lib/am335x-evm/a8/debug/gcc\libboard.a(am335x_lcd4_dcard.o)
                0x800100c8                gDCardAm335xLCD4EepromOffset
 .bss.gConsoleUtilsType
                0x800100ca        0x1 E:/uC-Soft/TI/TIRTOS/PDK_AM~1/packages/ti/starterware/binary/utils/lib/am335x-evm/a8/debug/gcc\libutils.a(console_utils.o)
 *fill*         0x800100cb        0x1 
 .bss.gI2CUtilsObj
                0x800100cc       0x9c E:/uC-Soft/TI/TIRTOS/PDK_AM~1/packages/ti/starterware/binary/utils/lib/am335x-evm/a8/debug/gcc\libutils.a(i2c_utils.o)
 .bss.gFreeRunTimerClockRateHz
                0x80010168        0x4 E:/uC-Soft/TI/TIRTOS/PDK_AM~1/packages/ti/starterware/binary/utils/lib/am335x-evm/a8/debug/gcc\libutils.a(dmtimer_utils.o)
 *fill*         0x8001016c        0x4 
 .bss.gFreeRunTimerCount
                0x80010170        0x8 E:/uC-Soft/TI/TIRTOS/PDK_AM~1/packages/ti/starterware/binary/utils/lib/am335x-evm/a8/debug/gcc\libutils.a(dmtimer_utils.o)
 .bss.gBaseAddr
                0x80010178        0x4 E:/uC-Soft/TI/TIRTOS/PDK_AM~1/packages/ti/starterware/binary/utils/lib/am335x-evm/a8/debug/gcc\libutils.a(dmtimer_utils.o)
 .bss.gConsoleUtilsUartInstAddr
                0x8001017c        0x4 E:/uC-Soft/TI/TIRTOS/PDK_AM~1/packages/ti/starterware/binary/utils/lib/am335x-evm/a8/debug/gcc\libutils.a(console_utils_uart.o)
 .bss.pIntrHandlers
                0x80010180      0x200 E:/uC-Soft/TI/TIRTOS/PDK_AM~1/packages/ti/starterware/binary/soc/lib/am335x-evm/a8/debug/gcc\libsoc.a(intc.o)
 .bss.pUserParameter
                0x80010380      0x200 E:/uC-Soft/TI/TIRTOS/PDK_AM~1/packages/ti/starterware/binary/soc/lib/am335x-evm/a8/debug/gcc\libsoc.a(intc.o)
 .bss.spuriousIntrCnt
                0x80010580        0x4 E:/uC-Soft/TI/TIRTOS/PDK_AM~1/packages/ti/starterware/binary/soc/lib/am335x-evm/a8/debug/gcc\libsoc.a(intc.o)
 .bss.isIntcInitialized
                0x80010584        0x4 E:/uC-Soft/TI/TIRTOS/PDK_AM~1/packages/ti/starterware/binary/soc/lib/am335x-evm/a8/debug/gcc\libsoc.a(intc.o)
 *(COMMON)
 *fill*         0x80010588     0x3a78 
 COMMON         0x80014000     0x4000 E:/uC-Soft/TI/TIRTOS/PDK_AM~1/packages/ti/starterware/binary/examples/example_utils/lib/am335x-evm/a8/debug/gcc\libexample_utils.a(example_utils_mmu.o)
                0x80014000                pageTable
 COMMON         0x80018000        0x6 E:/uC-Soft/TI/TIRTOS/PDK_AM~1/packages/ti/starterware/binary/board/lib/am335x-evm/a8/debug/gcc\libboard.a(am335x_gpevm.o)
                0x80018000                gDataToSlave
                0x80018004                gDataFromSlave
 *fill*         0x80018006        0x2 
 COMMON         0x80018008       0x35 E:/uC-Soft/TI/TIRTOS/PDK_AM~1/packages/ti/starterware/binary/board/lib/am335x-evm/a8/debug/gcc\libboard.a(am335x_lcd4_dcard.o)
                0x80018008                gDCardAm335xLCD4EepromDataBoardName
                0x80018020                gDCardAm335xLCD4EepromDataVersion
                0x80018028                gDCardAm335xLCD4EepromDataHeader
                0x80018030                gDCardAm335xLCD4EepromDataSerialNumber
                0x8001803d                _bss_end = .

.heap           0x8001803d      0x803
                0x80018040                . = ALIGN (0x4)
 *fill*         0x8001803d        0x3 
                0x80018040                __end__ = .
                0x80018040                end = __end__
                0x80018040                __HeapBase = __end__
 *(.heap*)
                0x80018840                . = (. + 0x800)
 *fill*         0x80018040      0x800 
                0x80018840                __HeapLimit = .

.stack          0x80018840    0x10000
                0x80018840                . = ALIGN (0x8)
                0x80018840                __StackLimit = .
 *(.stack*)
                0x80028840                . = (. + 0x10000)
 *fill*         0x80018840    0x10000 
                0x80028840                __StackTop = .
                0x80028840                _stack = __StackTop
LOAD E:/uC-Soft/TI/TIRTOS/PDK_AM~1/packages/ti/starterware/binary/examples/example_utils/lib/am335x-evm/a8/debug/gcc\libexample_utils.a
LOAD E:/uC-Soft/TI/TIRTOS/PDK_AM~1/packages/ti/starterware/binary/board/lib/am335x-evm/a8/debug/gcc\libboard.a
LOAD E:/uC-Soft/TI/TIRTOS/PDK_AM~1/packages/ti/starterware/binary/utils/lib/am335x-evm/a8/debug/gcc\libutils.a
LOAD E:/uC-Soft/TI/TIRTOS/PDK_AM~1/packages/ti/starterware/binary/soc/lib/am335x-evm/a8/debug/gcc\libsoc.a
LOAD E:/uC-Soft/TI/TIRTOS/PDK_AM~1/packages/ti/starterware/binary/dal/lib/am335x-evm/a8/debug/gcc\libdal.a
LOAD E:/uC-Soft/TI/TIRTOS/gcc-arm-none-eabi-6-2017-q1-update/arm-none-eabi/lib/hard\libstdc++_nano.a
LOAD e:/uc-soft/ti/tirtos/gcc-arm-none-eabi-6-2017-q1-update/bin/../lib/gcc/arm-none-eabi/6.3.1/hard\libgcc.a
LOAD E:/uC-Soft/TI/TIRTOS/gcc-arm-none-eabi-6-2017-q1-update/arm-none-eabi/lib/hard\libm.a
LOAD E:/uC-Soft/TI/TIRTOS/gcc-arm-none-eabi-6-2017-q1-update/arm-none-eabi/lib/hard\libc_nano.a
LOAD E:/uC-Soft/TI/TIRTOS/gcc-arm-none-eabi-6-2017-q1-update/arm-none-eabi/lib/hard\librdimon_nano.a
START GROUP
LOAD e:/uc-soft/ti/tirtos/gcc-arm-none-eabi-6-2017-q1-update/bin/../lib/gcc/arm-none-eabi/6.3.1/hard\libgcc.a
LOAD E:/uC-Soft/TI/TIRTOS/gcc-arm-none-eabi-6-2017-q1-update/arm-none-eabi/lib/hard\libc_nano.a
END GROUP
START GROUP
LOAD e:/uc-soft/ti/tirtos/gcc-arm-none-eabi-6-2017-q1-update/bin/../lib/gcc/arm-none-eabi/6.3.1/hard\libgcc.a
LOAD E:/uC-Soft/TI/TIRTOS/gcc-arm-none-eabi-6-2017-q1-update/arm-none-eabi/lib/hard\libc_nano.a
END GROUP
LOAD e:/uc-soft/ti/tirtos/gcc-arm-none-eabi-6-2017-q1-update/bin/../lib/gcc/arm-none-eabi/6.3.1/hard/crtend.o
LOAD e:/uc-soft/ti/tirtos/gcc-arm-none-eabi-6-2017-q1-update/bin/../lib/gcc/arm-none-eabi/6.3.1/hard/crtn.o
OUTPUT(E:/uC-Soft/TI/TIRTOS/PDK_AM~1/packages/ti/starterware/binary/uart_app_echo/bin/am335x-evm/gcc/uart_app_echo_a8host_debug.out elf32-littlearm)

.ARM.attributes
                0x00000000       0x39
 .ARM.attributes
                0x00000000       0x16 e:/uc-soft/ti/tirtos/gcc-arm-none-eabi-6-2017-q1-update/bin/../lib/gcc/arm-none-eabi/6.3.1/hard/crti.o
 .ARM.attributes
                0x00000016       0x3d E:/uC-Soft/TI/TIRTOS/PDK_AM~1/packages/ti/starterware/binary/uart_app_echo/obj/am335x-evm/a8host/debug/gcc/uart_app.o
 .ARM.attributes
                0x00000053       0x3d E:/uC-Soft/TI/TIRTOS/PDK_AM~1/packages/ti/starterware/binary/uart_app_echo/obj/am335x-evm/a8host/debug/gcc/echo_app_main.o
 .ARM.attributes
                0x00000090       0x3d E:/uC-Soft/TI/TIRTOS/PDK_AM~1/packages/ti/starterware/binary/examples/example_utils/lib/am335x-evm/a8/debug/gcc\libexample_utils.a(example_utils_mmu.o)
 .ARM.attributes
                0x000000cd       0x3d E:/uC-Soft/TI/TIRTOS/PDK_AM~1/packages/ti/starterware/binary/board/lib/am335x-evm/a8/debug/gcc\libboard.a(board.o)
 .ARM.attributes
                0x0000010a       0x3d E:/uC-Soft/TI/TIRTOS/PDK_AM~1/packages/ti/starterware/binary/board/lib/am335x-evm/a8/debug/gcc\libboard.a(dcard.o)
 .ARM.attributes
                0x00000147       0x3d E:/uC-Soft/TI/TIRTOS/PDK_AM~1/packages/ti/starterware/binary/board/lib/am335x-evm/a8/debug/gcc\libboard.a(platform.o)
 .ARM.attributes
                0x00000184       0x3d E:/uC-Soft/TI/TIRTOS/PDK_AM~1/packages/ti/starterware/binary/board/lib/am335x-evm/a8/debug/gcc\libboard.a(pinmux.o)
 .ARM.attributes
                0x000001c1       0x3d E:/uC-Soft/TI/TIRTOS/PDK_AM~1/packages/ti/starterware/binary/board/lib/am335x-evm/a8/debug/gcc\libboard.a(board_am335x.o)
 .ARM.attributes
                0x000001fe       0x3d E:/uC-Soft/TI/TIRTOS/PDK_AM~1/packages/ti/starterware/binary/board/lib/am335x-evm/a8/debug/gcc\libboard.a(dcard_am335x.o)
 .ARM.attributes
                0x0000023b       0x3d E:/uC-Soft/TI/TIRTOS/PDK_AM~1/packages/ti/starterware/binary/board/lib/am335x-evm/a8/debug/gcc\libboard.a(am335x_gpevm.o)
 .ARM.attributes
                0x00000278       0x3d E:/uC-Soft/TI/TIRTOS/PDK_AM~1/packages/ti/starterware/binary/board/lib/am335x-evm/a8/debug/gcc\libboard.a(am335x_evmsk.o)
 .ARM.attributes
                0x000002b5       0x3d E:/uC-Soft/TI/TIRTOS/PDK_AM~1/packages/ti/starterware/binary/board/lib/am335x-evm/a8/debug/gcc\libboard.a(am335x_beaglebone.o)
 .ARM.attributes
                0x000002f2       0x3d E:/uC-Soft/TI/TIRTOS/PDK_AM~1/packages/ti/starterware/binary/board/lib/am335x-evm/a8/debug/gcc\libboard.a(am335x_beagleboneblack.o)
 .ARM.attributes
                0x0000032f       0x3d E:/uC-Soft/TI/TIRTOS/PDK_AM~1/packages/ti/starterware/binary/board/lib/am335x-evm/a8/debug/gcc\libboard.a(am335x_icev1.o)
 .ARM.attributes
                0x0000036c       0x3d E:/uC-Soft/TI/TIRTOS/PDK_AM~1/packages/ti/starterware/binary/board/lib/am335x-evm/a8/debug/gcc\libboard.a(am335x_icev2.o)
 .ARM.attributes
                0x000003a9       0x3d E:/uC-Soft/TI/TIRTOS/PDK_AM~1/packages/ti/starterware/binary/board/lib/am335x-evm/a8/debug/gcc\libboard.a(am335x_amic110.o)
 .ARM.attributes
                0x000003e6       0x3d E:/uC-Soft/TI/TIRTOS/PDK_AM~1/packages/ti/starterware/binary/board/lib/am335x-evm/a8/debug/gcc\libboard.a(am335x_custom.o)
 .ARM.attributes
                0x00000423       0x3d E:/uC-Soft/TI/TIRTOS/PDK_AM~1/packages/ti/starterware/binary/board/lib/am335x-evm/a8/debug/gcc\libboard.a(am335x_gpevm_pinmux_data.o)
 .ARM.attributes
                0x00000460       0x3d E:/uC-Soft/TI/TIRTOS/PDK_AM~1/packages/ti/starterware/binary/board/lib/am335x-evm/a8/debug/gcc\libboard.a(am335x_evmsk_pinmux_data.o)
 .ARM.attributes
                0x0000049d       0x3d E:/uC-Soft/TI/TIRTOS/PDK_AM~1/packages/ti/starterware/binary/board/lib/am335x-evm/a8/debug/gcc\libboard.a(am335x_beaglebone_pinmux_data.o)
 .ARM.attributes
                0x000004da       0x3d E:/uC-Soft/TI/TIRTOS/PDK_AM~1/packages/ti/starterware/binary/board/lib/am335x-evm/a8/debug/gcc\libboard.a(am335x_beagleboneblack_pinmux_data.o)
 .ARM.attributes
                0x00000517       0x3d E:/uC-Soft/TI/TIRTOS/PDK_AM~1/packages/ti/starterware/binary/board/lib/am335x-evm/a8/debug/gcc\libboard.a(am335x_icev1_pinmux_data.o)
 .ARM.attributes
                0x00000554       0x3d E:/uC-Soft/TI/TIRTOS/PDK_AM~1/packages/ti/starterware/binary/board/lib/am335x-evm/a8/debug/gcc\libboard.a(am335x_icev2_pinmux_data.o)
 .ARM.attributes
                0x00000591       0x3d E:/uC-Soft/TI/TIRTOS/PDK_AM~1/packages/ti/starterware/binary/board/lib/am335x-evm/a8/debug/gcc\libboard.a(am335x_amic11x_pinmux_data.o)
 .ARM.attributes
                0x000005ce       0x3d E:/uC-Soft/TI/TIRTOS/PDK_AM~1/packages/ti/starterware/binary/board/lib/am335x-evm/a8/debug/gcc\libboard.a(am335x_lcd4_dcard.o)
 .ARM.attributes
                0x0000060b       0x3d E:/uC-Soft/TI/TIRTOS/PDK_AM~1/packages/ti/starterware/binary/utils/lib/am335x-evm/a8/debug/gcc\libutils.a(console_utils.o)
 .ARM.attributes
                0x00000648       0x3d E:/uC-Soft/TI/TIRTOS/PDK_AM~1/packages/ti/starterware/binary/utils/lib/am335x-evm/a8/debug/gcc\libutils.a(i2c_utils.o)
 .ARM.attributes
                0x00000685       0x3d E:/uC-Soft/TI/TIRTOS/PDK_AM~1/packages/ti/starterware/binary/utils/lib/am335x-evm/a8/debug/gcc\libutils.a(time_utils.o)
 .ARM.attributes
                0x000006c2       0x3d E:/uC-Soft/TI/TIRTOS/PDK_AM~1/packages/ti/starterware/binary/utils/lib/am335x-evm/a8/debug/gcc\libutils.a(dmtimer_utils.o)
 .ARM.attributes
                0x000006ff       0x3d E:/uC-Soft/TI/TIRTOS/PDK_AM~1/packages/ti/starterware/binary/utils/lib/am335x-evm/a8/debug/gcc\libutils.a(console_utils_uart.o)
 .ARM.attributes
                0x0000073c       0x29 E:/uC-Soft/TI/TIRTOS/PDK_AM~1/packages/ti/starterware/binary/soc/lib/am335x-evm/a8/debug/gcc\libsoc.a(init.o)
 .ARM.attributes
                0x00000765       0x3d E:/uC-Soft/TI/TIRTOS/PDK_AM~1/packages/ti/starterware/binary/soc/lib/am335x-evm/a8/debug/gcc\libsoc.a(soc.o)
 .ARM.attributes
                0x000007a2       0x3d E:/uC-Soft/TI/TIRTOS/PDK_AM~1/packages/ti/starterware/binary/soc/lib/am335x-evm/a8/debug/gcc\libsoc.a(startup.o)
 .ARM.attributes
                0x000007df       0x3d E:/uC-Soft/TI/TIRTOS/PDK_AM~1/packages/ti/starterware/binary/soc/lib/am335x-evm/a8/debug/gcc\libsoc.a(am335x_chipdb.o)
 .ARM.attributes
                0x0000081c       0x3d E:/uC-Soft/TI/TIRTOS/PDK_AM~1/packages/ti/starterware/binary/soc/lib/am335x-evm/a8/debug/gcc\libsoc.a(hw_am335x_chipdb.o)
 .ARM.attributes
                0x00000859       0x3d E:/uC-Soft/TI/TIRTOS/PDK_AM~1/packages/ti/starterware/binary/soc/lib/am335x-evm/a8/debug/gcc\libsoc.a(hw_am335x_chipdb_baseaddr.o)
 .ARM.attributes
                0x00000896       0x3d E:/uC-Soft/TI/TIRTOS/PDK_AM~1/packages/ti/starterware/binary/soc/lib/am335x-evm/a8/debug/gcc\libsoc.a(intc.o)
 .ARM.attributes
                0x000008d3       0x3d E:/uC-Soft/TI/TIRTOS/PDK_AM~1/packages/ti/starterware/binary/soc/lib/am335x-evm/a8/debug/gcc\libsoc.a(cache_arm.o)
 .ARM.attributes
                0x00000910       0x3d E:/uC-Soft/TI/TIRTOS/PDK_AM~1/packages/ti/starterware/binary/soc/lib/am335x-evm/a8/debug/gcc\libsoc.a(mmu_arm.o)
 .ARM.attributes
                0x0000094d       0x3d E:/uC-Soft/TI/TIRTOS/PDK_AM~1/packages/ti/starterware/binary/soc/lib/am335x-evm/a8/debug/gcc\libsoc.a(am335x_prcm.o)
 .ARM.attributes
                0x0000098a       0x29 E:/uC-Soft/TI/TIRTOS/PDK_AM~1/packages/ti/starterware/binary/soc/lib/am335x-evm/a8/debug/gcc\libsoc.a(cp15.o)
 .ARM.attributes
                0x000009b3       0x29 E:/uC-Soft/TI/TIRTOS/PDK_AM~1/packages/ti/starterware/binary/soc/lib/am335x-evm/a8/debug/gcc\libsoc.a(exceptionhandler.o)
 .ARM.attributes
                0x000009dc       0x3d E:/uC-Soft/TI/TIRTOS/PDK_AM~1/packages/ti/starterware/binary/soc/lib/am335x-evm/a8/debug/gcc\libsoc.a(cpu.o)
 .ARM.attributes
                0x00000a19       0x3d E:/uC-Soft/TI/TIRTOS/PDK_AM~1/packages/ti/starterware/binary/dal/lib/am335x-evm/a8/debug/gcc\libdal.a(i2c.o)
 .ARM.attributes
                0x00000a56       0x3d E:/uC-Soft/TI/TIRTOS/PDK_AM~1/packages/ti/starterware/binary/dal/lib/am335x-evm/a8/debug/gcc\libdal.a(uart.o)
 .ARM.attributes
                0x00000a93       0x3d E:/uC-Soft/TI/TIRTOS/PDK_AM~1/packages/ti/starterware/binary/dal/lib/am335x-evm/a8/debug/gcc\libdal.a(gpio.o)
 .ARM.attributes
                0x00000ad0       0x3d E:/uC-Soft/TI/TIRTOS/PDK_AM~1/packages/ti/starterware/binary/dal/lib/am335x-evm/a8/debug/gcc\libdal.a(dmtimer.o)
 .ARM.attributes
                0x00000b0d       0x18 e:/uc-soft/ti/tirtos/gcc-arm-none-eabi-6-2017-q1-update/bin/../lib/gcc/arm-none-eabi/6.3.1/hard\libgcc.a(_udivsi3.o)
 .ARM.attributes
                0x00000b25       0x18 e:/uc-soft/ti/tirtos/gcc-arm-none-eabi-6-2017-q1-update/bin/../lib/gcc/arm-none-eabi/6.3.1/hard\libgcc.a(_divsi3.o)
 .ARM.attributes
                0x00000b3d       0x18 e:/uc-soft/ti/tirtos/gcc-arm-none-eabi-6-2017-q1-update/bin/../lib/gcc/arm-none-eabi/6.3.1/hard\libgcc.a(_dvmd_tls.o)
 .ARM.attributes
                0x00000b55       0x18 e:/uc-soft/ti/tirtos/gcc-arm-none-eabi-6-2017-q1-update/bin/../lib/gcc/arm-none-eabi/6.3.1/hard\libgcc.a(_arm_addsubsf3.o)
 .ARM.attributes
                0x00000b6d       0x18 e:/uc-soft/ti/tirtos/gcc-arm-none-eabi-6-2017-q1-update/bin/../lib/gcc/arm-none-eabi/6.3.1/hard\libgcc.a(_aeabi_uldivmod.o)
 .ARM.attributes
                0x00000b85       0x34 e:/uc-soft/ti/tirtos/gcc-arm-none-eabi-6-2017-q1-update/bin/../lib/gcc/arm-none-eabi/6.3.1/hard\libgcc.a(_fixunssfdi.o)
 .ARM.attributes
                0x00000bb9       0x34 e:/uc-soft/ti/tirtos/gcc-arm-none-eabi-6-2017-q1-update/bin/../lib/gcc/arm-none-eabi/6.3.1/hard\libgcc.a(_fixunsdfdi.o)
 .ARM.attributes
                0x00000bed       0x34 e:/uc-soft/ti/tirtos/gcc-arm-none-eabi-6-2017-q1-update/bin/../lib/gcc/arm-none-eabi/6.3.1/hard\libgcc.a(_udivmoddi4.o)
 .ARM.attributes
                0x00000c21       0x18 e:/uc-soft/ti/tirtos/gcc-arm-none-eabi-6-2017-q1-update/bin/../lib/gcc/arm-none-eabi/6.3.1/hard\libgcc.a(_clzdi2.o)
 .ARM.attributes
                0x00000c39       0x18 e:/uc-soft/ti/tirtos/gcc-arm-none-eabi-6-2017-q1-update/bin/../lib/gcc/arm-none-eabi/6.3.1/hard\libgcc.a(_clzsi2.o)
 .ARM.attributes
                0x00000c51       0x34 E:/uC-Soft/TI/TIRTOS/gcc-arm-none-eabi-6-2017-q1-update/arm-none-eabi/lib/hard\libc_nano.a(lib_a-memcpy-stub.o)
 .ARM.attributes
                0x00000c85       0x34 E:/uC-Soft/TI/TIRTOS/gcc-arm-none-eabi-6-2017-q1-update/arm-none-eabi/lib/hard\libc_nano.a(lib_a-memset.o)
 .ARM.attributes
                0x00000cb9       0x34 E:/uC-Soft/TI/TIRTOS/gcc-arm-none-eabi-6-2017-q1-update/arm-none-eabi/lib/hard\libc_nano.a(lib_a-strncmp.o)

.comment        0x00000000       0x7f
 .comment       0x00000000       0x7f E:/uC-Soft/TI/TIRTOS/PDK_AM~1/packages/ti/starterware/binary/uart_app_echo/obj/am335x-evm/a8host/debug/gcc/uart_app.o
                                 0x80 (size before relaxing)
 .comment       0x0000007f       0x80 E:/uC-Soft/TI/TIRTOS/PDK_AM~1/packages/ti/starterware/binary/uart_app_echo/obj/am335x-evm/a8host/debug/gcc/echo_app_main.o
 .comment       0x0000007f       0x80 E:/uC-Soft/TI/TIRTOS/PDK_AM~1/packages/ti/starterware/binary/examples/example_utils/lib/am335x-evm/a8/debug/gcc\libexample_utils.a(example_utils_mmu.o)
 .comment       0x0000007f       0x80 E:/uC-Soft/TI/TIRTOS/PDK_AM~1/packages/ti/starterware/binary/board/lib/am335x-evm/a8/debug/gcc\libboard.a(board.o)
 .comment       0x0000007f       0x80 E:/uC-Soft/TI/TIRTOS/PDK_AM~1/packages/ti/starterware/binary/board/lib/am335x-evm/a8/debug/gcc\libboard.a(dcard.o)
 .comment       0x0000007f       0x80 E:/uC-Soft/TI/TIRTOS/PDK_AM~1/packages/ti/starterware/binary/board/lib/am335x-evm/a8/debug/gcc\libboard.a(platform.o)
 .comment       0x0000007f       0x80 E:/uC-Soft/TI/TIRTOS/PDK_AM~1/packages/ti/starterware/binary/board/lib/am335x-evm/a8/debug/gcc\libboard.a(pinmux.o)
 .comment       0x0000007f       0x80 E:/uC-Soft/TI/TIRTOS/PDK_AM~1/packages/ti/starterware/binary/board/lib/am335x-evm/a8/debug/gcc\libboard.a(board_am335x.o)
 .comment       0x0000007f       0x80 E:/uC-Soft/TI/TIRTOS/PDK_AM~1/packages/ti/starterware/binary/board/lib/am335x-evm/a8/debug/gcc\libboard.a(dcard_am335x.o)
 .comment       0x0000007f       0x80 E:/uC-Soft/TI/TIRTOS/PDK_AM~1/packages/ti/starterware/binary/board/lib/am335x-evm/a8/debug/gcc\libboard.a(am335x_gpevm.o)
 .comment       0x0000007f       0x80 E:/uC-Soft/TI/TIRTOS/PDK_AM~1/packages/ti/starterware/binary/board/lib/am335x-evm/a8/debug/gcc\libboard.a(am335x_evmsk.o)
 .comment       0x0000007f       0x80 E:/uC-Soft/TI/TIRTOS/PDK_AM~1/packages/ti/starterware/binary/board/lib/am335x-evm/a8/debug/gcc\libboard.a(am335x_beaglebone.o)
 .comment       0x0000007f       0x80 E:/uC-Soft/TI/TIRTOS/PDK_AM~1/packages/ti/starterware/binary/board/lib/am335x-evm/a8/debug/gcc\libboard.a(am335x_beagleboneblack.o)
 .comment       0x0000007f       0x80 E:/uC-Soft/TI/TIRTOS/PDK_AM~1/packages/ti/starterware/binary/board/lib/am335x-evm/a8/debug/gcc\libboard.a(am335x_icev1.o)
 .comment       0x0000007f       0x80 E:/uC-Soft/TI/TIRTOS/PDK_AM~1/packages/ti/starterware/binary/board/lib/am335x-evm/a8/debug/gcc\libboard.a(am335x_icev2.o)
 .comment       0x0000007f       0x80 E:/uC-Soft/TI/TIRTOS/PDK_AM~1/packages/ti/starterware/binary/board/lib/am335x-evm/a8/debug/gcc\libboard.a(am335x_amic110.o)
 .comment       0x0000007f       0x80 E:/uC-Soft/TI/TIRTOS/PDK_AM~1/packages/ti/starterware/binary/board/lib/am335x-evm/a8/debug/gcc\libboard.a(am335x_custom.o)
 .comment       0x0000007f       0x80 E:/uC-Soft/TI/TIRTOS/PDK_AM~1/packages/ti/starterware/binary/board/lib/am335x-evm/a8/debug/gcc\libboard.a(am335x_gpevm_pinmux_data.o)
 .comment       0x0000007f       0x80 E:/uC-Soft/TI/TIRTOS/PDK_AM~1/packages/ti/starterware/binary/board/lib/am335x-evm/a8/debug/gcc\libboard.a(am335x_evmsk_pinmux_data.o)
 .comment       0x0000007f       0x80 E:/uC-Soft/TI/TIRTOS/PDK_AM~1/packages/ti/starterware/binary/board/lib/am335x-evm/a8/debug/gcc\libboard.a(am335x_beaglebone_pinmux_data.o)
 .comment       0x0000007f       0x80 E:/uC-Soft/TI/TIRTOS/PDK_AM~1/packages/ti/starterware/binary/board/lib/am335x-evm/a8/debug/gcc\libboard.a(am335x_beagleboneblack_pinmux_data.o)
 .comment       0x0000007f       0x80 E:/uC-Soft/TI/TIRTOS/PDK_AM~1/packages/ti/starterware/binary/board/lib/am335x-evm/a8/debug/gcc\libboard.a(am335x_icev1_pinmux_data.o)
 .comment       0x0000007f       0x80 E:/uC-Soft/TI/TIRTOS/PDK_AM~1/packages/ti/starterware/binary/board/lib/am335x-evm/a8/debug/gcc\libboard.a(am335x_icev2_pinmux_data.o)
 .comment       0x0000007f       0x80 E:/uC-Soft/TI/TIRTOS/PDK_AM~1/packages/ti/starterware/binary/board/lib/am335x-evm/a8/debug/gcc\libboard.a(am335x_amic11x_pinmux_data.o)
 .comment       0x0000007f       0x80 E:/uC-Soft/TI/TIRTOS/PDK_AM~1/packages/ti/starterware/binary/board/lib/am335x-evm/a8/debug/gcc\libboard.a(am335x_lcd4_dcard.o)
 .comment       0x0000007f       0x80 E:/uC-Soft/TI/TIRTOS/PDK_AM~1/packages/ti/starterware/binary/utils/lib/am335x-evm/a8/debug/gcc\libutils.a(console_utils.o)
 .comment       0x0000007f       0x80 E:/uC-Soft/TI/TIRTOS/PDK_AM~1/packages/ti/starterware/binary/utils/lib/am335x-evm/a8/debug/gcc\libutils.a(i2c_utils.o)
 .comment       0x0000007f       0x80 E:/uC-Soft/TI/TIRTOS/PDK_AM~1/packages/ti/starterware/binary/utils/lib/am335x-evm/a8/debug/gcc\libutils.a(time_utils.o)
 .comment       0x0000007f       0x80 E:/uC-Soft/TI/TIRTOS/PDK_AM~1/packages/ti/starterware/binary/utils/lib/am335x-evm/a8/debug/gcc\libutils.a(dmtimer_utils.o)
 .comment       0x0000007f       0x80 E:/uC-Soft/TI/TIRTOS/PDK_AM~1/packages/ti/starterware/binary/utils/lib/am335x-evm/a8/debug/gcc\libutils.a(console_utils_uart.o)
 .comment       0x0000007f       0x80 E:/uC-Soft/TI/TIRTOS/PDK_AM~1/packages/ti/starterware/binary/soc/lib/am335x-evm/a8/debug/gcc\libsoc.a(soc.o)
 .comment       0x0000007f       0x80 E:/uC-Soft/TI/TIRTOS/PDK_AM~1/packages/ti/starterware/binary/soc/lib/am335x-evm/a8/debug/gcc\libsoc.a(startup.o)
 .comment       0x0000007f       0x80 E:/uC-Soft/TI/TIRTOS/PDK_AM~1/packages/ti/starterware/binary/soc/lib/am335x-evm/a8/debug/gcc\libsoc.a(am335x_chipdb.o)
 .comment       0x0000007f       0x80 E:/uC-Soft/TI/TIRTOS/PDK_AM~1/packages/ti/starterware/binary/soc/lib/am335x-evm/a8/debug/gcc\libsoc.a(hw_am335x_chipdb.o)
 .comment       0x0000007f       0x80 E:/uC-Soft/TI/TIRTOS/PDK_AM~1/packages/ti/starterware/binary/soc/lib/am335x-evm/a8/debug/gcc\libsoc.a(hw_am335x_chipdb_baseaddr.o)
 .comment       0x0000007f       0x80 E:/uC-Soft/TI/TIRTOS/PDK_AM~1/packages/ti/starterware/binary/soc/lib/am335x-evm/a8/debug/gcc\libsoc.a(intc.o)
 .comment       0x0000007f       0x80 E:/uC-Soft/TI/TIRTOS/PDK_AM~1/packages/ti/starterware/binary/soc/lib/am335x-evm/a8/debug/gcc\libsoc.a(cache_arm.o)
 .comment       0x0000007f       0x80 E:/uC-Soft/TI/TIRTOS/PDK_AM~1/packages/ti/starterware/binary/soc/lib/am335x-evm/a8/debug/gcc\libsoc.a(mmu_arm.o)
 .comment       0x0000007f       0x80 E:/uC-Soft/TI/TIRTOS/PDK_AM~1/packages/ti/starterware/binary/soc/lib/am335x-evm/a8/debug/gcc\libsoc.a(am335x_prcm.o)
 .comment       0x0000007f       0x80 E:/uC-Soft/TI/TIRTOS/PDK_AM~1/packages/ti/starterware/binary/soc/lib/am335x-evm/a8/debug/gcc\libsoc.a(cpu.o)
 .comment       0x0000007f       0x80 E:/uC-Soft/TI/TIRTOS/PDK_AM~1/packages/ti/starterware/binary/dal/lib/am335x-evm/a8/debug/gcc\libdal.a(i2c.o)
 .comment       0x0000007f       0x80 E:/uC-Soft/TI/TIRTOS/PDK_AM~1/packages/ti/starterware/binary/dal/lib/am335x-evm/a8/debug/gcc\libdal.a(uart.o)
 .comment       0x0000007f       0x80 E:/uC-Soft/TI/TIRTOS/PDK_AM~1/packages/ti/starterware/binary/dal/lib/am335x-evm/a8/debug/gcc\libdal.a(gpio.o)
 .comment       0x0000007f       0x80 E:/uC-Soft/TI/TIRTOS/PDK_AM~1/packages/ti/starterware/binary/dal/lib/am335x-evm/a8/debug/gcc\libdal.a(dmtimer.o)

.debug_info     0x00000000    0x35719
 .debug_info    0x00000000     0x1a13 E:/uC-Soft/TI/TIRTOS/PDK_AM~1/packages/ti/starterware/binary/uart_app_echo/obj/am335x-evm/a8host/debug/gcc/uart_app.o
 .debug_info    0x00001a13     0x15a0 E:/uC-Soft/TI/TIRTOS/PDK_AM~1/packages/ti/starterware/binary/uart_app_echo/obj/am335x-evm/a8host/debug/gcc/echo_app_main.o
 .debug_info    0x00002fb3      0xe66 E:/uC-Soft/TI/TIRTOS/PDK_AM~1/packages/ti/starterware/binary/examples/example_utils/lib/am335x-evm/a8/debug/gcc\libexample_utils.a(example_utils_mmu.o)
 .debug_info    0x00003e19     0x1f30 E:/uC-Soft/TI/TIRTOS/PDK_AM~1/packages/ti/starterware/binary/board/lib/am335x-evm/a8/debug/gcc\libboard.a(board.o)
 .debug_info    0x00005d49     0x1608 E:/uC-Soft/TI/TIRTOS/PDK_AM~1/packages/ti/starterware/binary/board/lib/am335x-evm/a8/debug/gcc\libboard.a(dcard.o)
 .debug_info    0x00007351      0x9d8 E:/uC-Soft/TI/TIRTOS/PDK_AM~1/packages/ti/starterware/binary/board/lib/am335x-evm/a8/debug/gcc\libboard.a(platform.o)
 .debug_info    0x00007d29     0x13ff E:/uC-Soft/TI/TIRTOS/PDK_AM~1/packages/ti/starterware/binary/board/lib/am335x-evm/a8/debug/gcc\libboard.a(pinmux.o)
 .debug_info    0x00009128     0x1922 E:/uC-Soft/TI/TIRTOS/PDK_AM~1/packages/ti/starterware/binary/board/lib/am335x-evm/a8/debug/gcc\libboard.a(board_am335x.o)
 .debug_info    0x0000aa4a     0x16ee E:/uC-Soft/TI/TIRTOS/PDK_AM~1/packages/ti/starterware/binary/board/lib/am335x-evm/a8/debug/gcc\libboard.a(dcard_am335x.o)
 .debug_info    0x0000c138     0x1940 E:/uC-Soft/TI/TIRTOS/PDK_AM~1/packages/ti/starterware/binary/board/lib/am335x-evm/a8/debug/gcc\libboard.a(am335x_gpevm.o)
 .debug_info    0x0000da78     0x1492 E:/uC-Soft/TI/TIRTOS/PDK_AM~1/packages/ti/starterware/binary/board/lib/am335x-evm/a8/debug/gcc\libboard.a(am335x_evmsk.o)
 .debug_info    0x0000ef0a     0x14a4 E:/uC-Soft/TI/TIRTOS/PDK_AM~1/packages/ti/starterware/binary/board/lib/am335x-evm/a8/debug/gcc\libboard.a(am335x_beaglebone.o)
 .debug_info    0x000103ae     0x18fa E:/uC-Soft/TI/TIRTOS/PDK_AM~1/packages/ti/starterware/binary/board/lib/am335x-evm/a8/debug/gcc\libboard.a(am335x_beagleboneblack.o)
 .debug_info    0x00011ca8     0x14ab E:/uC-Soft/TI/TIRTOS/PDK_AM~1/packages/ti/starterware/binary/board/lib/am335x-evm/a8/debug/gcc\libboard.a(am335x_icev1.o)
 .debug_info    0x00013153     0x16ab E:/uC-Soft/TI/TIRTOS/PDK_AM~1/packages/ti/starterware/binary/board/lib/am335x-evm/a8/debug/gcc\libboard.a(am335x_icev2.o)
 .debug_info    0x000147fe     0x16ab E:/uC-Soft/TI/TIRTOS/PDK_AM~1/packages/ti/starterware/binary/board/lib/am335x-evm/a8/debug/gcc\libboard.a(am335x_amic110.o)
 .debug_info    0x00015ea9     0x12ff E:/uC-Soft/TI/TIRTOS/PDK_AM~1/packages/ti/starterware/binary/board/lib/am335x-evm/a8/debug/gcc\libboard.a(am335x_custom.o)
 .debug_info    0x000171a8     0x12f9 E:/uC-Soft/TI/TIRTOS/PDK_AM~1/packages/ti/starterware/binary/board/lib/am335x-evm/a8/debug/gcc\libboard.a(am335x_gpevm_pinmux_data.o)
 .debug_info    0x000184a1     0x1227 E:/uC-Soft/TI/TIRTOS/PDK_AM~1/packages/ti/starterware/binary/board/lib/am335x-evm/a8/debug/gcc\libboard.a(am335x_evmsk_pinmux_data.o)
 .debug_info    0x000196c8     0x11e0 E:/uC-Soft/TI/TIRTOS/PDK_AM~1/packages/ti/starterware/binary/board/lib/am335x-evm/a8/debug/gcc\libboard.a(am335x_beaglebone_pinmux_data.o)
 .debug_info    0x0001a8a8     0x128f E:/uC-Soft/TI/TIRTOS/PDK_AM~1/packages/ti/starterware/binary/board/lib/am335x-evm/a8/debug/gcc\libboard.a(am335x_beagleboneblack_pinmux_data.o)
 .debug_info    0x0001bb37     0x1233 E:/uC-Soft/TI/TIRTOS/PDK_AM~1/packages/ti/starterware/binary/board/lib/am335x-evm/a8/debug/gcc\libboard.a(am335x_icev1_pinmux_data.o)
 .debug_info    0x0001cd6a     0x133a E:/uC-Soft/TI/TIRTOS/PDK_AM~1/packages/ti/starterware/binary/board/lib/am335x-evm/a8/debug/gcc\libboard.a(am335x_icev2_pinmux_data.o)
 .debug_info    0x0001e0a4     0x1389 E:/uC-Soft/TI/TIRTOS/PDK_AM~1/packages/ti/starterware/binary/board/lib/am335x-evm/a8/debug/gcc\libboard.a(am335x_amic11x_pinmux_data.o)
 .debug_info    0x0001f42d     0x1578 E:/uC-Soft/TI/TIRTOS/PDK_AM~1/packages/ti/starterware/binary/board/lib/am335x-evm/a8/debug/gcc\libboard.a(am335x_lcd4_dcard.o)
 .debug_info    0x000209a5      0xe9b E:/uC-Soft/TI/TIRTOS/PDK_AM~1/packages/ti/starterware/binary/utils/lib/am335x-evm/a8/debug/gcc\libutils.a(console_utils.o)
 .debug_info    0x00021840     0x1790 E:/uC-Soft/TI/TIRTOS/PDK_AM~1/packages/ti/starterware/binary/utils/lib/am335x-evm/a8/debug/gcc\libutils.a(i2c_utils.o)
 .debug_info    0x00022fd0      0xd5d E:/uC-Soft/TI/TIRTOS/PDK_AM~1/packages/ti/starterware/binary/utils/lib/am335x-evm/a8/debug/gcc\libutils.a(time_utils.o)
 .debug_info    0x00023d2d     0x1028 E:/uC-Soft/TI/TIRTOS/PDK_AM~1/packages/ti/starterware/binary/utils/lib/am335x-evm/a8/debug/gcc\libutils.a(dmtimer_utils.o)
 .debug_info    0x00024d55     0x1e59 E:/uC-Soft/TI/TIRTOS/PDK_AM~1/packages/ti/starterware/binary/utils/lib/am335x-evm/a8/debug/gcc\libutils.a(console_utils_uart.o)
 .debug_info    0x00026bae       0x75 E:/uC-Soft/TI/TIRTOS/PDK_AM~1/packages/ti/starterware/binary/soc/lib/am335x-evm/a8/debug/gcc\libsoc.a(init.o)
 .debug_info    0x00026c23      0xadd E:/uC-Soft/TI/TIRTOS/PDK_AM~1/packages/ti/starterware/binary/soc/lib/am335x-evm/a8/debug/gcc\libsoc.a(soc.o)
 .debug_info    0x00027700      0xd0a E:/uC-Soft/TI/TIRTOS/PDK_AM~1/packages/ti/starterware/binary/soc/lib/am335x-evm/a8/debug/gcc\libsoc.a(startup.o)
 .debug_info    0x0002840a     0x1302 E:/uC-Soft/TI/TIRTOS/PDK_AM~1/packages/ti/starterware/binary/soc/lib/am335x-evm/a8/debug/gcc\libsoc.a(am335x_chipdb.o)
 .debug_info    0x0002970c      0xd38 E:/uC-Soft/TI/TIRTOS/PDK_AM~1/packages/ti/starterware/binary/soc/lib/am335x-evm/a8/debug/gcc\libsoc.a(hw_am335x_chipdb.o)
 .debug_info    0x0002a444      0xcb4 E:/uC-Soft/TI/TIRTOS/PDK_AM~1/packages/ti/starterware/binary/soc/lib/am335x-evm/a8/debug/gcc\libsoc.a(hw_am335x_chipdb_baseaddr.o)
 .debug_info    0x0002b0f8      0xd2d E:/uC-Soft/TI/TIRTOS/PDK_AM~1/packages/ti/starterware/binary/soc/lib/am335x-evm/a8/debug/gcc\libsoc.a(intc.o)
 .debug_info    0x0002be25      0xe67 E:/uC-Soft/TI/TIRTOS/PDK_AM~1/packages/ti/starterware/binary/soc/lib/am335x-evm/a8/debug/gcc\libsoc.a(cache_arm.o)
 .debug_info    0x0002cc8c      0xbcf E:/uC-Soft/TI/TIRTOS/PDK_AM~1/packages/ti/starterware/binary/soc/lib/am335x-evm/a8/debug/gcc\libsoc.a(mmu_arm.o)
 .debug_info    0x0002d85b      0xed5 E:/uC-Soft/TI/TIRTOS/PDK_AM~1/packages/ti/starterware/binary/soc/lib/am335x-evm/a8/debug/gcc\libsoc.a(am335x_prcm.o)
 .debug_info    0x0002e730       0x75 E:/uC-Soft/TI/TIRTOS/PDK_AM~1/packages/ti/starterware/binary/soc/lib/am335x-evm/a8/debug/gcc\libsoc.a(cp15.o)
 .debug_info    0x0002e7a5       0x81 E:/uC-Soft/TI/TIRTOS/PDK_AM~1/packages/ti/starterware/binary/soc/lib/am335x-evm/a8/debug/gcc\libsoc.a(exceptionhandler.o)
 .debug_info    0x0002e826      0x94e E:/uC-Soft/TI/TIRTOS/PDK_AM~1/packages/ti/starterware/binary/soc/lib/am335x-evm/a8/debug/gcc\libsoc.a(cpu.o)
 .debug_info    0x0002f174     0x1753 E:/uC-Soft/TI/TIRTOS/PDK_AM~1/packages/ti/starterware/binary/dal/lib/am335x-evm/a8/debug/gcc\libdal.a(i2c.o)
 .debug_info    0x000308c7     0x2803 E:/uC-Soft/TI/TIRTOS/PDK_AM~1/packages/ti/starterware/binary/dal/lib/am335x-evm/a8/debug/gcc\libdal.a(uart.o)
 .debug_info    0x000330ca     0x1474 E:/uC-Soft/TI/TIRTOS/PDK_AM~1/packages/ti/starterware/binary/dal/lib/am335x-evm/a8/debug/gcc\libdal.a(gpio.o)
 .debug_info    0x0003453e     0x11db E:/uC-Soft/TI/TIRTOS/PDK_AM~1/packages/ti/starterware/binary/dal/lib/am335x-evm/a8/debug/gcc\libdal.a(dmtimer.o)

.debug_abbrev   0x00000000     0x5c22
 .debug_abbrev  0x00000000      0x2d3 E:/uC-Soft/TI/TIRTOS/PDK_AM~1/packages/ti/starterware/binary/uart_app_echo/obj/am335x-evm/a8host/debug/gcc/uart_app.o
 .debug_abbrev  0x000002d3      0x27b E:/uC-Soft/TI/TIRTOS/PDK_AM~1/packages/ti/starterware/binary/uart_app_echo/obj/am335x-evm/a8host/debug/gcc/echo_app_main.o
 .debug_abbrev  0x0000054e      0x1ef E:/uC-Soft/TI/TIRTOS/PDK_AM~1/packages/ti/starterware/binary/examples/example_utils/lib/am335x-evm/a8/debug/gcc\libexample_utils.a(example_utils_mmu.o)
 .debug_abbrev  0x0000073d      0x29d E:/uC-Soft/TI/TIRTOS/PDK_AM~1/packages/ti/starterware/binary/board/lib/am335x-evm/a8/debug/gcc\libboard.a(board.o)
 .debug_abbrev  0x000009da      0x227 E:/uC-Soft/TI/TIRTOS/PDK_AM~1/packages/ti/starterware/binary/board/lib/am335x-evm/a8/debug/gcc\libboard.a(dcard.o)
 .debug_abbrev  0x00000c01      0x1cc E:/uC-Soft/TI/TIRTOS/PDK_AM~1/packages/ti/starterware/binary/board/lib/am335x-evm/a8/debug/gcc\libboard.a(platform.o)
 .debug_abbrev  0x00000dcd      0x218 E:/uC-Soft/TI/TIRTOS/PDK_AM~1/packages/ti/starterware/binary/board/lib/am335x-evm/a8/debug/gcc\libboard.a(pinmux.o)
 .debug_abbrev  0x00000fe5      0x285 E:/uC-Soft/TI/TIRTOS/PDK_AM~1/packages/ti/starterware/binary/board/lib/am335x-evm/a8/debug/gcc\libboard.a(board_am335x.o)
 .debug_abbrev  0x0000126a      0x28e E:/uC-Soft/TI/TIRTOS/PDK_AM~1/packages/ti/starterware/binary/board/lib/am335x-evm/a8/debug/gcc\libboard.a(dcard_am335x.o)
 .debug_abbrev  0x000014f8      0x22f E:/uC-Soft/TI/TIRTOS/PDK_AM~1/packages/ti/starterware/binary/board/lib/am335x-evm/a8/debug/gcc\libboard.a(am335x_gpevm.o)
 .debug_abbrev  0x00001727      0x1a6 E:/uC-Soft/TI/TIRTOS/PDK_AM~1/packages/ti/starterware/binary/board/lib/am335x-evm/a8/debug/gcc\libboard.a(am335x_evmsk.o)
 .debug_abbrev  0x000018cd      0x1a6 E:/uC-Soft/TI/TIRTOS/PDK_AM~1/packages/ti/starterware/binary/board/lib/am335x-evm/a8/debug/gcc\libboard.a(am335x_beaglebone.o)
 .debug_abbrev  0x00001a73      0x235 E:/uC-Soft/TI/TIRTOS/PDK_AM~1/packages/ti/starterware/binary/board/lib/am335x-evm/a8/debug/gcc\libboard.a(am335x_beagleboneblack.o)
 .debug_abbrev  0x00001ca8      0x1b3 E:/uC-Soft/TI/TIRTOS/PDK_AM~1/packages/ti/starterware/binary/board/lib/am335x-evm/a8/debug/gcc\libboard.a(am335x_icev1.o)
 .debug_abbrev  0x00001e5b      0x256 E:/uC-Soft/TI/TIRTOS/PDK_AM~1/packages/ti/starterware/binary/board/lib/am335x-evm/a8/debug/gcc\libboard.a(am335x_icev2.o)
 .debug_abbrev  0x000020b1      0x256 E:/uC-Soft/TI/TIRTOS/PDK_AM~1/packages/ti/starterware/binary/board/lib/am335x-evm/a8/debug/gcc\libboard.a(am335x_amic110.o)
 .debug_abbrev  0x00002307      0x190 E:/uC-Soft/TI/TIRTOS/PDK_AM~1/packages/ti/starterware/binary/board/lib/am335x-evm/a8/debug/gcc\libboard.a(am335x_custom.o)
 .debug_abbrev  0x00002497      0x1c0 E:/uC-Soft/TI/TIRTOS/PDK_AM~1/packages/ti/starterware/binary/board/lib/am335x-evm/a8/debug/gcc\libboard.a(am335x_gpevm_pinmux_data.o)
 .debug_abbrev  0x00002657      0x1c0 E:/uC-Soft/TI/TIRTOS/PDK_AM~1/packages/ti/starterware/binary/board/lib/am335x-evm/a8/debug/gcc\libboard.a(am335x_evmsk_pinmux_data.o)
 .debug_abbrev  0x00002817      0x1c0 E:/uC-Soft/TI/TIRTOS/PDK_AM~1/packages/ti/starterware/binary/board/lib/am335x-evm/a8/debug/gcc\libboard.a(am335x_beaglebone_pinmux_data.o)
 .debug_abbrev  0x000029d7      0x1c0 E:/uC-Soft/TI/TIRTOS/PDK_AM~1/packages/ti/starterware/binary/board/lib/am335x-evm/a8/debug/gcc\libboard.a(am335x_beagleboneblack_pinmux_data.o)
 .debug_abbrev  0x00002b97      0x1c0 E:/uC-Soft/TI/TIRTOS/PDK_AM~1/packages/ti/starterware/binary/board/lib/am335x-evm/a8/debug/gcc\libboard.a(am335x_icev1_pinmux_data.o)
 .debug_abbrev  0x00002d57      0x1c0 E:/uC-Soft/TI/TIRTOS/PDK_AM~1/packages/ti/starterware/binary/board/lib/am335x-evm/a8/debug/gcc\libboard.a(am335x_icev2_pinmux_data.o)
 .debug_abbrev  0x00002f17      0x1c0 E:/uC-Soft/TI/TIRTOS/PDK_AM~1/packages/ti/starterware/binary/board/lib/am335x-evm/a8/debug/gcc\libboard.a(am335x_amic11x_pinmux_data.o)
 .debug_abbrev  0x000030d7      0x1f3 E:/uC-Soft/TI/TIRTOS/PDK_AM~1/packages/ti/starterware/binary/board/lib/am335x-evm/a8/debug/gcc\libboard.a(am335x_lcd4_dcard.o)
 .debug_abbrev  0x000032ca      0x254 E:/uC-Soft/TI/TIRTOS/PDK_AM~1/packages/ti/starterware/binary/utils/lib/am335x-evm/a8/debug/gcc\libutils.a(console_utils.o)
 .debug_abbrev  0x0000351e      0x27d E:/uC-Soft/TI/TIRTOS/PDK_AM~1/packages/ti/starterware/binary/utils/lib/am335x-evm/a8/debug/gcc\libutils.a(i2c_utils.o)
 .debug_abbrev  0x0000379b      0x1fd E:/uC-Soft/TI/TIRTOS/PDK_AM~1/packages/ti/starterware/binary/utils/lib/am335x-evm/a8/debug/gcc\libutils.a(time_utils.o)
 .debug_abbrev  0x00003998      0x22f E:/uC-Soft/TI/TIRTOS/PDK_AM~1/packages/ti/starterware/binary/utils/lib/am335x-evm/a8/debug/gcc\libutils.a(dmtimer_utils.o)
 .debug_abbrev  0x00003bc7      0x2c3 E:/uC-Soft/TI/TIRTOS/PDK_AM~1/packages/ti/starterware/binary/utils/lib/am335x-evm/a8/debug/gcc\libutils.a(console_utils_uart.o)
 .debug_abbrev  0x00003e8a       0x14 E:/uC-Soft/TI/TIRTOS/PDK_AM~1/packages/ti/starterware/binary/soc/lib/am335x-evm/a8/debug/gcc\libsoc.a(init.o)
 .debug_abbrev  0x00003e9e      0x1cc E:/uC-Soft/TI/TIRTOS/PDK_AM~1/packages/ti/starterware/binary/soc/lib/am335x-evm/a8/debug/gcc\libsoc.a(soc.o)
 .debug_abbrev  0x0000406a      0x1d7 E:/uC-Soft/TI/TIRTOS/PDK_AM~1/packages/ti/starterware/binary/soc/lib/am335x-evm/a8/debug/gcc\libsoc.a(startup.o)
 .debug_abbrev  0x00004241      0x270 E:/uC-Soft/TI/TIRTOS/PDK_AM~1/packages/ti/starterware/binary/soc/lib/am335x-evm/a8/debug/gcc\libsoc.a(am335x_chipdb.o)
 .debug_abbrev  0x000044b1      0x1d9 E:/uC-Soft/TI/TIRTOS/PDK_AM~1/packages/ti/starterware/binary/soc/lib/am335x-evm/a8/debug/gcc\libsoc.a(hw_am335x_chipdb.o)
 .debug_abbrev  0x0000468a      0x183 E:/uC-Soft/TI/TIRTOS/PDK_AM~1/packages/ti/starterware/binary/soc/lib/am335x-evm/a8/debug/gcc\libsoc.a(hw_am335x_chipdb_baseaddr.o)
 .debug_abbrev  0x0000480d      0x23c E:/uC-Soft/TI/TIRTOS/PDK_AM~1/packages/ti/starterware/binary/soc/lib/am335x-evm/a8/debug/gcc\libsoc.a(intc.o)
 .debug_abbrev  0x00004a49      0x21d E:/uC-Soft/TI/TIRTOS/PDK_AM~1/packages/ti/starterware/binary/soc/lib/am335x-evm/a8/debug/gcc\libsoc.a(cache_arm.o)
 .debug_abbrev  0x00004c66      0x1fd E:/uC-Soft/TI/TIRTOS/PDK_AM~1/packages/ti/starterware/binary/soc/lib/am335x-evm/a8/debug/gcc\libsoc.a(mmu_arm.o)
 .debug_abbrev  0x00004e63      0x216 E:/uC-Soft/TI/TIRTOS/PDK_AM~1/packages/ti/starterware/binary/soc/lib/am335x-evm/a8/debug/gcc\libsoc.a(am335x_prcm.o)
 .debug_abbrev  0x00005079       0x14 E:/uC-Soft/TI/TIRTOS/PDK_AM~1/packages/ti/starterware/binary/soc/lib/am335x-evm/a8/debug/gcc\libsoc.a(cp15.o)
 .debug_abbrev  0x0000508d       0x14 E:/uC-Soft/TI/TIRTOS/PDK_AM~1/packages/ti/starterware/binary/soc/lib/am335x-evm/a8/debug/gcc\libsoc.a(exceptionhandler.o)
 .debug_abbrev  0x000050a1      0x1bb E:/uC-Soft/TI/TIRTOS/PDK_AM~1/packages/ti/starterware/binary/soc/lib/am335x-evm/a8/debug/gcc\libsoc.a(cpu.o)
 .debug_abbrev  0x0000525c      0x2a2 E:/uC-Soft/TI/TIRTOS/PDK_AM~1/packages/ti/starterware/binary/dal/lib/am335x-evm/a8/debug/gcc\libdal.a(i2c.o)
 .debug_abbrev  0x000054fe      0x29a E:/uC-Soft/TI/TIRTOS/PDK_AM~1/packages/ti/starterware/binary/dal/lib/am335x-evm/a8/debug/gcc\libdal.a(uart.o)
 .debug_abbrev  0x00005798      0x245 E:/uC-Soft/TI/TIRTOS/PDK_AM~1/packages/ti/starterware/binary/dal/lib/am335x-evm/a8/debug/gcc\libdal.a(gpio.o)
 .debug_abbrev  0x000059dd      0x245 E:/uC-Soft/TI/TIRTOS/PDK_AM~1/packages/ti/starterware/binary/dal/lib/am335x-evm/a8/debug/gcc\libdal.a(dmtimer.o)

.debug_aranges  0x00000000     0x1070
 .debug_aranges
                0x00000000       0x68 E:/uC-Soft/TI/TIRTOS/PDK_AM~1/packages/ti/starterware/binary/uart_app_echo/obj/am335x-evm/a8host/debug/gcc/uart_app.o
 .debug_aranges
                0x00000068       0x40 E:/uC-Soft/TI/TIRTOS/PDK_AM~1/packages/ti/starterware/binary/uart_app_echo/obj/am335x-evm/a8host/debug/gcc/echo_app_main.o
 .debug_aranges
                0x000000a8       0x20 E:/uC-Soft/TI/TIRTOS/PDK_AM~1/packages/ti/starterware/binary/examples/example_utils/lib/am335x-evm/a8/debug/gcc\libexample_utils.a(example_utils_mmu.o)
 .debug_aranges
                0x000000c8       0xe0 E:/uC-Soft/TI/TIRTOS/PDK_AM~1/packages/ti/starterware/binary/board/lib/am335x-evm/a8/debug/gcc\libboard.a(board.o)
 .debug_aranges
                0x000001a8       0x58 E:/uC-Soft/TI/TIRTOS/PDK_AM~1/packages/ti/starterware/binary/board/lib/am335x-evm/a8/debug/gcc\libboard.a(dcard.o)
 .debug_aranges
                0x00000200       0x30 E:/uC-Soft/TI/TIRTOS/PDK_AM~1/packages/ti/starterware/binary/board/lib/am335x-evm/a8/debug/gcc\libboard.a(platform.o)
 .debug_aranges
                0x00000230       0x28 E:/uC-Soft/TI/TIRTOS/PDK_AM~1/packages/ti/starterware/binary/board/lib/am335x-evm/a8/debug/gcc\libboard.a(pinmux.o)
 .debug_aranges
                0x00000258       0x58 E:/uC-Soft/TI/TIRTOS/PDK_AM~1/packages/ti/starterware/binary/board/lib/am335x-evm/a8/debug/gcc\libboard.a(board_am335x.o)
 .debug_aranges
                0x000002b0       0x40 E:/uC-Soft/TI/TIRTOS/PDK_AM~1/packages/ti/starterware/binary/board/lib/am335x-evm/a8/debug/gcc\libboard.a(dcard_am335x.o)
 .debug_aranges
                0x000002f0       0x38 E:/uC-Soft/TI/TIRTOS/PDK_AM~1/packages/ti/starterware/binary/board/lib/am335x-evm/a8/debug/gcc\libboard.a(am335x_gpevm.o)
 .debug_aranges
                0x00000328       0x18 E:/uC-Soft/TI/TIRTOS/PDK_AM~1/packages/ti/starterware/binary/board/lib/am335x-evm/a8/debug/gcc\libboard.a(am335x_evmsk.o)
 .debug_aranges
                0x00000340       0x18 E:/uC-Soft/TI/TIRTOS/PDK_AM~1/packages/ti/starterware/binary/board/lib/am335x-evm/a8/debug/gcc\libboard.a(am335x_beaglebone.o)
 .debug_aranges
                0x00000358       0x40 E:/uC-Soft/TI/TIRTOS/PDK_AM~1/packages/ti/starterware/binary/board/lib/am335x-evm/a8/debug/gcc\libboard.a(am335x_beagleboneblack.o)
 .debug_aranges
                0x00000398       0x18 E:/uC-Soft/TI/TIRTOS/PDK_AM~1/packages/ti/starterware/binary/board/lib/am335x-evm/a8/debug/gcc\libboard.a(am335x_icev1.o)
 .debug_aranges
                0x000003b0       0x20 E:/uC-Soft/TI/TIRTOS/PDK_AM~1/packages/ti/starterware/binary/board/lib/am335x-evm/a8/debug/gcc\libboard.a(am335x_icev2.o)
 .debug_aranges
                0x000003d0       0x20 E:/uC-Soft/TI/TIRTOS/PDK_AM~1/packages/ti/starterware/binary/board/lib/am335x-evm/a8/debug/gcc\libboard.a(am335x_amic110.o)
 .debug_aranges
                0x000003f0       0x18 E:/uC-Soft/TI/TIRTOS/PDK_AM~1/packages/ti/starterware/binary/board/lib/am335x-evm/a8/debug/gcc\libboard.a(am335x_custom.o)
 .debug_aranges
                0x00000408       0x18 E:/uC-Soft/TI/TIRTOS/PDK_AM~1/packages/ti/starterware/binary/board/lib/am335x-evm/a8/debug/gcc\libboard.a(am335x_gpevm_pinmux_data.o)
 .debug_aranges
                0x00000420       0x18 E:/uC-Soft/TI/TIRTOS/PDK_AM~1/packages/ti/starterware/binary/board/lib/am335x-evm/a8/debug/gcc\libboard.a(am335x_evmsk_pinmux_data.o)
 .debug_aranges
                0x00000438       0x18 E:/uC-Soft/TI/TIRTOS/PDK_AM~1/packages/ti/starterware/binary/board/lib/am335x-evm/a8/debug/gcc\libboard.a(am335x_beaglebone_pinmux_data.o)
 .debug_aranges
                0x00000450       0x18 E:/uC-Soft/TI/TIRTOS/PDK_AM~1/packages/ti/starterware/binary/board/lib/am335x-evm/a8/debug/gcc\libboard.a(am335x_beagleboneblack_pinmux_data.o)
 .debug_aranges
                0x00000468       0x18 E:/uC-Soft/TI/TIRTOS/PDK_AM~1/packages/ti/starterware/binary/board/lib/am335x-evm/a8/debug/gcc\libboard.a(am335x_icev1_pinmux_data.o)
 .debug_aranges
                0x00000480       0x18 E:/uC-Soft/TI/TIRTOS/PDK_AM~1/packages/ti/starterware/binary/board/lib/am335x-evm/a8/debug/gcc\libboard.a(am335x_icev2_pinmux_data.o)
 .debug_aranges
                0x00000498       0x18 E:/uC-Soft/TI/TIRTOS/PDK_AM~1/packages/ti/starterware/binary/board/lib/am335x-evm/a8/debug/gcc\libboard.a(am335x_amic11x_pinmux_data.o)
 .debug_aranges
                0x000004b0       0x28 E:/uC-Soft/TI/TIRTOS/PDK_AM~1/packages/ti/starterware/binary/board/lib/am335x-evm/a8/debug/gcc\libboard.a(am335x_lcd4_dcard.o)
 .debug_aranges
                0x000004d8       0xa8 E:/uC-Soft/TI/TIRTOS/PDK_AM~1/packages/ti/starterware/binary/utils/lib/am335x-evm/a8/debug/gcc\libutils.a(console_utils.o)
 .debug_aranges
                0x00000580       0x90 E:/uC-Soft/TI/TIRTOS/PDK_AM~1/packages/ti/starterware/binary/utils/lib/am335x-evm/a8/debug/gcc\libutils.a(i2c_utils.o)
 .debug_aranges
                0x00000610       0x50 E:/uC-Soft/TI/TIRTOS/PDK_AM~1/packages/ti/starterware/binary/utils/lib/am335x-evm/a8/debug/gcc\libutils.a(time_utils.o)
 .debug_aranges
                0x00000660       0x38 E:/uC-Soft/TI/TIRTOS/PDK_AM~1/packages/ti/starterware/binary/utils/lib/am335x-evm/a8/debug/gcc\libutils.a(dmtimer_utils.o)
 .debug_aranges
                0x00000698       0x90 E:/uC-Soft/TI/TIRTOS/PDK_AM~1/packages/ti/starterware/binary/utils/lib/am335x-evm/a8/debug/gcc\libutils.a(console_utils_uart.o)
 .debug_aranges
                0x00000728       0x20 E:/uC-Soft/TI/TIRTOS/PDK_AM~1/packages/ti/starterware/binary/soc/lib/am335x-evm/a8/debug/gcc\libsoc.a(init.o)
 .debug_aranges
                0x00000748       0x40 E:/uC-Soft/TI/TIRTOS/PDK_AM~1/packages/ti/starterware/binary/soc/lib/am335x-evm/a8/debug/gcc\libsoc.a(soc.o)
 .debug_aranges
                0x00000788       0x28 E:/uC-Soft/TI/TIRTOS/PDK_AM~1/packages/ti/starterware/binary/soc/lib/am335x-evm/a8/debug/gcc\libsoc.a(startup.o)
 .debug_aranges
                0x000007b0       0xb0 E:/uC-Soft/TI/TIRTOS/PDK_AM~1/packages/ti/starterware/binary/soc/lib/am335x-evm/a8/debug/gcc\libsoc.a(am335x_chipdb.o)
 .debug_aranges
                0x00000860       0x28 E:/uC-Soft/TI/TIRTOS/PDK_AM~1/packages/ti/starterware/binary/soc/lib/am335x-evm/a8/debug/gcc\libsoc.a(hw_am335x_chipdb.o)
 .debug_aranges
                0x00000888       0x18 E:/uC-Soft/TI/TIRTOS/PDK_AM~1/packages/ti/starterware/binary/soc/lib/am335x-evm/a8/debug/gcc\libsoc.a(hw_am335x_chipdb_baseaddr.o)
 .debug_aranges
                0x000008a0       0x88 E:/uC-Soft/TI/TIRTOS/PDK_AM~1/packages/ti/starterware/binary/soc/lib/am335x-evm/a8/debug/gcc\libsoc.a(intc.o)
 .debug_aranges
                0x00000928       0xb0 E:/uC-Soft/TI/TIRTOS/PDK_AM~1/packages/ti/starterware/binary/soc/lib/am335x-evm/a8/debug/gcc\libsoc.a(cache_arm.o)
 .debug_aranges
                0x000009d8       0x38 E:/uC-Soft/TI/TIRTOS/PDK_AM~1/packages/ti/starterware/binary/soc/lib/am335x-evm/a8/debug/gcc\libsoc.a(mmu_arm.o)
 .debug_aranges
                0x00000a10       0x38 E:/uC-Soft/TI/TIRTOS/PDK_AM~1/packages/ti/starterware/binary/soc/lib/am335x-evm/a8/debug/gcc\libsoc.a(am335x_prcm.o)
 .debug_aranges
                0x00000a48       0x20 E:/uC-Soft/TI/TIRTOS/PDK_AM~1/packages/ti/starterware/binary/soc/lib/am335x-evm/a8/debug/gcc\libsoc.a(cp15.o)
 .debug_aranges
                0x00000a68       0x20 E:/uC-Soft/TI/TIRTOS/PDK_AM~1/packages/ti/starterware/binary/soc/lib/am335x-evm/a8/debug/gcc\libsoc.a(exceptionhandler.o)
 .debug_aranges
                0x00000a88       0x48 E:/uC-Soft/TI/TIRTOS/PDK_AM~1/packages/ti/starterware/binary/soc/lib/am335x-evm/a8/debug/gcc\libsoc.a(cpu.o)
 .debug_aranges
                0x00000ad0      0x170 E:/uC-Soft/TI/TIRTOS/PDK_AM~1/packages/ti/starterware/binary/dal/lib/am335x-evm/a8/debug/gcc\libdal.a(i2c.o)
 .debug_aranges
                0x00000c40      0x228 E:/uC-Soft/TI/TIRTOS/PDK_AM~1/packages/ti/starterware/binary/dal/lib/am335x-evm/a8/debug/gcc\libdal.a(uart.o)
 .debug_aranges
                0x00000e68      0x110 E:/uC-Soft/TI/TIRTOS/PDK_AM~1/packages/ti/starterware/binary/dal/lib/am335x-evm/a8/debug/gcc\libdal.a(gpio.o)
 .debug_aranges
                0x00000f78       0xf8 E:/uC-Soft/TI/TIRTOS/PDK_AM~1/packages/ti/starterware/binary/dal/lib/am335x-evm/a8/debug/gcc\libdal.a(dmtimer.o)

.debug_ranges   0x00000000      0xd50
 .debug_ranges  0x00000000       0x58 E:/uC-Soft/TI/TIRTOS/PDK_AM~1/packages/ti/starterware/binary/uart_app_echo/obj/am335x-evm/a8host/debug/gcc/uart_app.o
 .debug_ranges  0x00000058       0x30 E:/uC-Soft/TI/TIRTOS/PDK_AM~1/packages/ti/starterware/binary/uart_app_echo/obj/am335x-evm/a8host/debug/gcc/echo_app_main.o
 .debug_ranges  0x00000088       0x10 E:/uC-Soft/TI/TIRTOS/PDK_AM~1/packages/ti/starterware/binary/examples/example_utils/lib/am335x-evm/a8/debug/gcc\libexample_utils.a(example_utils_mmu.o)
 .debug_ranges  0x00000098       0xd0 E:/uC-Soft/TI/TIRTOS/PDK_AM~1/packages/ti/starterware/binary/board/lib/am335x-evm/a8/debug/gcc\libboard.a(board.o)
 .debug_ranges  0x00000168       0x48 E:/uC-Soft/TI/TIRTOS/PDK_AM~1/packages/ti/starterware/binary/board/lib/am335x-evm/a8/debug/gcc\libboard.a(dcard.o)
 .debug_ranges  0x000001b0       0x20 E:/uC-Soft/TI/TIRTOS/PDK_AM~1/packages/ti/starterware/binary/board/lib/am335x-evm/a8/debug/gcc\libboard.a(platform.o)
 .debug_ranges  0x000001d0       0x18 E:/uC-Soft/TI/TIRTOS/PDK_AM~1/packages/ti/starterware/binary/board/lib/am335x-evm/a8/debug/gcc\libboard.a(pinmux.o)
 .debug_ranges  0x000001e8       0x48 E:/uC-Soft/TI/TIRTOS/PDK_AM~1/packages/ti/starterware/binary/board/lib/am335x-evm/a8/debug/gcc\libboard.a(board_am335x.o)
 .debug_ranges  0x00000230       0x30 E:/uC-Soft/TI/TIRTOS/PDK_AM~1/packages/ti/starterware/binary/board/lib/am335x-evm/a8/debug/gcc\libboard.a(dcard_am335x.o)
 .debug_ranges  0x00000260       0x28 E:/uC-Soft/TI/TIRTOS/PDK_AM~1/packages/ti/starterware/binary/board/lib/am335x-evm/a8/debug/gcc\libboard.a(am335x_gpevm.o)
 .debug_ranges  0x00000288       0x30 E:/uC-Soft/TI/TIRTOS/PDK_AM~1/packages/ti/starterware/binary/board/lib/am335x-evm/a8/debug/gcc\libboard.a(am335x_beagleboneblack.o)
 .debug_ranges  0x000002b8       0x10 E:/uC-Soft/TI/TIRTOS/PDK_AM~1/packages/ti/starterware/binary/board/lib/am335x-evm/a8/debug/gcc\libboard.a(am335x_icev2.o)
 .debug_ranges  0x000002c8       0x10 E:/uC-Soft/TI/TIRTOS/PDK_AM~1/packages/ti/starterware/binary/board/lib/am335x-evm/a8/debug/gcc\libboard.a(am335x_amic110.o)
 .debug_ranges  0x000002d8       0x18 E:/uC-Soft/TI/TIRTOS/PDK_AM~1/packages/ti/starterware/binary/board/lib/am335x-evm/a8/debug/gcc\libboard.a(am335x_lcd4_dcard.o)
 .debug_ranges  0x000002f0       0x98 E:/uC-Soft/TI/TIRTOS/PDK_AM~1/packages/ti/starterware/binary/utils/lib/am335x-evm/a8/debug/gcc\libutils.a(console_utils.o)
 .debug_ranges  0x00000388       0x80 E:/uC-Soft/TI/TIRTOS/PDK_AM~1/packages/ti/starterware/binary/utils/lib/am335x-evm/a8/debug/gcc\libutils.a(i2c_utils.o)
 .debug_ranges  0x00000408       0x40 E:/uC-Soft/TI/TIRTOS/PDK_AM~1/packages/ti/starterware/binary/utils/lib/am335x-evm/a8/debug/gcc\libutils.a(time_utils.o)
 .debug_ranges  0x00000448       0x28 E:/uC-Soft/TI/TIRTOS/PDK_AM~1/packages/ti/starterware/binary/utils/lib/am335x-evm/a8/debug/gcc\libutils.a(dmtimer_utils.o)
 .debug_ranges  0x00000470       0xe0 E:/uC-Soft/TI/TIRTOS/PDK_AM~1/packages/ti/starterware/binary/utils/lib/am335x-evm/a8/debug/gcc\libutils.a(console_utils_uart.o)
 .debug_ranges  0x00000550       0x30 E:/uC-Soft/TI/TIRTOS/PDK_AM~1/packages/ti/starterware/binary/soc/lib/am335x-evm/a8/debug/gcc\libsoc.a(soc.o)
 .debug_ranges  0x00000580       0x18 E:/uC-Soft/TI/TIRTOS/PDK_AM~1/packages/ti/starterware/binary/soc/lib/am335x-evm/a8/debug/gcc\libsoc.a(startup.o)
 .debug_ranges  0x00000598       0xa0 E:/uC-Soft/TI/TIRTOS/PDK_AM~1/packages/ti/starterware/binary/soc/lib/am335x-evm/a8/debug/gcc\libsoc.a(am335x_chipdb.o)
 .debug_ranges  0x00000638       0x18 E:/uC-Soft/TI/TIRTOS/PDK_AM~1/packages/ti/starterware/binary/soc/lib/am335x-evm/a8/debug/gcc\libsoc.a(hw_am335x_chipdb.o)
 .debug_ranges  0x00000650       0x78 E:/uC-Soft/TI/TIRTOS/PDK_AM~1/packages/ti/starterware/binary/soc/lib/am335x-evm/a8/debug/gcc\libsoc.a(intc.o)
 .debug_ranges  0x000006c8       0xa0 E:/uC-Soft/TI/TIRTOS/PDK_AM~1/packages/ti/starterware/binary/soc/lib/am335x-evm/a8/debug/gcc\libsoc.a(cache_arm.o)
 .debug_ranges  0x00000768       0x28 E:/uC-Soft/TI/TIRTOS/PDK_AM~1/packages/ti/starterware/binary/soc/lib/am335x-evm/a8/debug/gcc\libsoc.a(mmu_arm.o)
 .debug_ranges  0x00000790       0x28 E:/uC-Soft/TI/TIRTOS/PDK_AM~1/packages/ti/starterware/binary/soc/lib/am335x-evm/a8/debug/gcc\libsoc.a(am335x_prcm.o)
 .debug_ranges  0x000007b8       0x38 E:/uC-Soft/TI/TIRTOS/PDK_AM~1/packages/ti/starterware/binary/soc/lib/am335x-evm/a8/debug/gcc\libsoc.a(cpu.o)
 .debug_ranges  0x000007f0      0x160 E:/uC-Soft/TI/TIRTOS/PDK_AM~1/packages/ti/starterware/binary/dal/lib/am335x-evm/a8/debug/gcc\libdal.a(i2c.o)
 .debug_ranges  0x00000950      0x218 E:/uC-Soft/TI/TIRTOS/PDK_AM~1/packages/ti/starterware/binary/dal/lib/am335x-evm/a8/debug/gcc\libdal.a(uart.o)
 .debug_ranges  0x00000b68      0x100 E:/uC-Soft/TI/TIRTOS/PDK_AM~1/packages/ti/starterware/binary/dal/lib/am335x-evm/a8/debug/gcc\libdal.a(gpio.o)
 .debug_ranges  0x00000c68       0xe8 E:/uC-Soft/TI/TIRTOS/PDK_AM~1/packages/ti/starterware/binary/dal/lib/am335x-evm/a8/debug/gcc\libdal.a(dmtimer.o)

.debug_line     0x00000000     0xa2f8
 .debug_line    0x00000000      0x43b E:/uC-Soft/TI/TIRTOS/PDK_AM~1/packages/ti/starterware/binary/uart_app_echo/obj/am335x-evm/a8host/debug/gcc/uart_app.o
 .debug_line    0x0000043b      0x3a6 E:/uC-Soft/TI/TIRTOS/PDK_AM~1/packages/ti/starterware/binary/uart_app_echo/obj/am335x-evm/a8host/debug/gcc/echo_app_main.o
 .debug_line    0x000007e1      0x25f E:/uC-Soft/TI/TIRTOS/PDK_AM~1/packages/ti/starterware/binary/examples/example_utils/lib/am335x-evm/a8/debug/gcc\libexample_utils.a(example_utils_mmu.o)
 .debug_line    0x00000a40      0x694 E:/uC-Soft/TI/TIRTOS/PDK_AM~1/packages/ti/starterware/binary/board/lib/am335x-evm/a8/debug/gcc\libboard.a(board.o)
 .debug_line    0x000010d4      0x39d E:/uC-Soft/TI/TIRTOS/PDK_AM~1/packages/ti/starterware/binary/board/lib/am335x-evm/a8/debug/gcc\libboard.a(dcard.o)
 .debug_line    0x00001471      0x273 E:/uC-Soft/TI/TIRTOS/PDK_AM~1/packages/ti/starterware/binary/board/lib/am335x-evm/a8/debug/gcc\libboard.a(platform.o)
 .debug_line    0x000016e4      0x30d E:/uC-Soft/TI/TIRTOS/PDK_AM~1/packages/ti/starterware/binary/board/lib/am335x-evm/a8/debug/gcc\libboard.a(pinmux.o)
 .debug_line    0x000019f1      0x4ed E:/uC-Soft/TI/TIRTOS/PDK_AM~1/packages/ti/starterware/binary/board/lib/am335x-evm/a8/debug/gcc\libboard.a(board_am335x.o)
 .debug_line    0x00001ede      0x423 E:/uC-Soft/TI/TIRTOS/PDK_AM~1/packages/ti/starterware/binary/board/lib/am335x-evm/a8/debug/gcc\libboard.a(dcard_am335x.o)
 .debug_line    0x00002301      0x3a5 E:/uC-Soft/TI/TIRTOS/PDK_AM~1/packages/ti/starterware/binary/board/lib/am335x-evm/a8/debug/gcc\libboard.a(am335x_gpevm.o)
 .debug_line    0x000026a6      0x25d E:/uC-Soft/TI/TIRTOS/PDK_AM~1/packages/ti/starterware/binary/board/lib/am335x-evm/a8/debug/gcc\libboard.a(am335x_evmsk.o)
 .debug_line    0x00002903      0x262 E:/uC-Soft/TI/TIRTOS/PDK_AM~1/packages/ti/starterware/binary/board/lib/am335x-evm/a8/debug/gcc\libboard.a(am335x_beaglebone.o)
 .debug_line    0x00002b65      0x3a9 E:/uC-Soft/TI/TIRTOS/PDK_AM~1/packages/ti/starterware/binary/board/lib/am335x-evm/a8/debug/gcc\libboard.a(am335x_beagleboneblack.o)
 .debug_line    0x00002f0e      0x26f E:/uC-Soft/TI/TIRTOS/PDK_AM~1/packages/ti/starterware/binary/board/lib/am335x-evm/a8/debug/gcc\libboard.a(am335x_icev1.o)
 .debug_line    0x0000317d      0x32f E:/uC-Soft/TI/TIRTOS/PDK_AM~1/packages/ti/starterware/binary/board/lib/am335x-evm/a8/debug/gcc\libboard.a(am335x_icev2.o)
 .debug_line    0x000034ac      0x333 E:/uC-Soft/TI/TIRTOS/PDK_AM~1/packages/ti/starterware/binary/board/lib/am335x-evm/a8/debug/gcc\libboard.a(am335x_amic110.o)
 .debug_line    0x000037df      0x23f E:/uC-Soft/TI/TIRTOS/PDK_AM~1/packages/ti/starterware/binary/board/lib/am335x-evm/a8/debug/gcc\libboard.a(am335x_custom.o)
 .debug_line    0x00003a1e      0x247 E:/uC-Soft/TI/TIRTOS/PDK_AM~1/packages/ti/starterware/binary/board/lib/am335x-evm/a8/debug/gcc\libboard.a(am335x_gpevm_pinmux_data.o)
 .debug_line    0x00003c65      0x247 E:/uC-Soft/TI/TIRTOS/PDK_AM~1/packages/ti/starterware/binary/board/lib/am335x-evm/a8/debug/gcc\libboard.a(am335x_evmsk_pinmux_data.o)
 .debug_line    0x00003eac      0x24c E:/uC-Soft/TI/TIRTOS/PDK_AM~1/packages/ti/starterware/binary/board/lib/am335x-evm/a8/debug/gcc\libboard.a(am335x_beaglebone_pinmux_data.o)
 .debug_line    0x000040f8      0x251 E:/uC-Soft/TI/TIRTOS/PDK_AM~1/packages/ti/starterware/binary/board/lib/am335x-evm/a8/debug/gcc\libboard.a(am335x_beagleboneblack_pinmux_data.o)
 .debug_line    0x00004349      0x247 E:/uC-Soft/TI/TIRTOS/PDK_AM~1/packages/ti/starterware/binary/board/lib/am335x-evm/a8/debug/gcc\libboard.a(am335x_icev1_pinmux_data.o)
 .debug_line    0x00004590      0x247 E:/uC-Soft/TI/TIRTOS/PDK_AM~1/packages/ti/starterware/binary/board/lib/am335x-evm/a8/debug/gcc\libboard.a(am335x_icev2_pinmux_data.o)
 .debug_line    0x000047d7      0x249 E:/uC-Soft/TI/TIRTOS/PDK_AM~1/packages/ti/starterware/binary/board/lib/am335x-evm/a8/debug/gcc\libboard.a(am335x_amic11x_pinmux_data.o)
 .debug_line    0x00004a20      0x28c E:/uC-Soft/TI/TIRTOS/PDK_AM~1/packages/ti/starterware/binary/board/lib/am335x-evm/a8/debug/gcc\libboard.a(am335x_lcd4_dcard.o)
 .debug_line    0x00004cac      0x41c E:/uC-Soft/TI/TIRTOS/PDK_AM~1/packages/ti/starterware/binary/utils/lib/am335x-evm/a8/debug/gcc\libutils.a(console_utils.o)
 .debug_line    0x000050c8      0x603 E:/uC-Soft/TI/TIRTOS/PDK_AM~1/packages/ti/starterware/binary/utils/lib/am335x-evm/a8/debug/gcc\libutils.a(i2c_utils.o)
 .debug_line    0x000056cb      0x349 E:/uC-Soft/TI/TIRTOS/PDK_AM~1/packages/ti/starterware/binary/utils/lib/am335x-evm/a8/debug/gcc\libutils.a(time_utils.o)
 .debug_line    0x00005a14      0x32f E:/uC-Soft/TI/TIRTOS/PDK_AM~1/packages/ti/starterware/binary/utils/lib/am335x-evm/a8/debug/gcc\libutils.a(dmtimer_utils.o)
 .debug_line    0x00005d43      0xae7 E:/uC-Soft/TI/TIRTOS/PDK_AM~1/packages/ti/starterware/binary/utils/lib/am335x-evm/a8/debug/gcc\libutils.a(console_utils_uart.o)
 .debug_line    0x0000682a       0x75 E:/uC-Soft/TI/TIRTOS/PDK_AM~1/packages/ti/starterware/binary/soc/lib/am335x-evm/a8/debug/gcc\libsoc.a(init.o)
 .debug_line    0x0000689f      0x2a6 E:/uC-Soft/TI/TIRTOS/PDK_AM~1/packages/ti/starterware/binary/soc/lib/am335x-evm/a8/debug/gcc\libsoc.a(soc.o)
 .debug_line    0x00006b45      0x2c0 E:/uC-Soft/TI/TIRTOS/PDK_AM~1/packages/ti/starterware/binary/soc/lib/am335x-evm/a8/debug/gcc\libsoc.a(startup.o)
 .debug_line    0x00006e05      0x45e E:/uC-Soft/TI/TIRTOS/PDK_AM~1/packages/ti/starterware/binary/soc/lib/am335x-evm/a8/debug/gcc\libsoc.a(am335x_chipdb.o)
 .debug_line    0x00007263      0x221 E:/uC-Soft/TI/TIRTOS/PDK_AM~1/packages/ti/starterware/binary/soc/lib/am335x-evm/a8/debug/gcc\libsoc.a(hw_am335x_chipdb.o)
 .debug_line    0x00007484      0x23b E:/uC-Soft/TI/TIRTOS/PDK_AM~1/packages/ti/starterware/binary/soc/lib/am335x-evm/a8/debug/gcc\libsoc.a(hw_am335x_chipdb_baseaddr.o)
 .debug_line    0x000076bf      0x44b E:/uC-Soft/TI/TIRTOS/PDK_AM~1/packages/ti/starterware/binary/soc/lib/am335x-evm/a8/debug/gcc\libsoc.a(intc.o)
 .debug_line    0x00007b0a      0x38a E:/uC-Soft/TI/TIRTOS/PDK_AM~1/packages/ti/starterware/binary/soc/lib/am335x-evm/a8/debug/gcc\libsoc.a(cache_arm.o)
 .debug_line    0x00007e94      0x2c8 E:/uC-Soft/TI/TIRTOS/PDK_AM~1/packages/ti/starterware/binary/soc/lib/am335x-evm/a8/debug/gcc\libsoc.a(mmu_arm.o)
 .debug_line    0x0000815c      0x34f E:/uC-Soft/TI/TIRTOS/PDK_AM~1/packages/ti/starterware/binary/soc/lib/am335x-evm/a8/debug/gcc\libsoc.a(am335x_prcm.o)
 .debug_line    0x000084ab      0x16c E:/uC-Soft/TI/TIRTOS/PDK_AM~1/packages/ti/starterware/binary/soc/lib/am335x-evm/a8/debug/gcc\libsoc.a(cp15.o)
 .debug_line    0x00008617       0x6f E:/uC-Soft/TI/TIRTOS/PDK_AM~1/packages/ti/starterware/binary/soc/lib/am335x-evm/a8/debug/gcc\libsoc.a(exceptionhandler.o)
 .debug_line    0x00008686      0x1f8 E:/uC-Soft/TI/TIRTOS/PDK_AM~1/packages/ti/starterware/binary/soc/lib/am335x-evm/a8/debug/gcc\libsoc.a(cpu.o)
 .debug_line    0x0000887e      0x656 E:/uC-Soft/TI/TIRTOS/PDK_AM~1/packages/ti/starterware/binary/dal/lib/am335x-evm/a8/debug/gcc\libdal.a(i2c.o)
 .debug_line    0x00008ed4      0x997 E:/uC-Soft/TI/TIRTOS/PDK_AM~1/packages/ti/starterware/binary/dal/lib/am335x-evm/a8/debug/gcc\libdal.a(uart.o)
 .debug_line    0x0000986b      0x555 E:/uC-Soft/TI/TIRTOS/PDK_AM~1/packages/ti/starterware/binary/dal/lib/am335x-evm/a8/debug/gcc\libdal.a(gpio.o)
 .debug_line    0x00009dc0      0x538 E:/uC-Soft/TI/TIRTOS/PDK_AM~1/packages/ti/starterware/binary/dal/lib/am335x-evm/a8/debug/gcc\libdal.a(dmtimer.o)

.debug_str      0x00000000     0x8a1a
 .debug_str     0x00000000     0x21f8 E:/uC-Soft/TI/TIRTOS/PDK_AM~1/packages/ti/starterware/binary/uart_app_echo/obj/am335x-evm/a8host/debug/gcc/uart_app.o
                               0x2295 (size before relaxing)
 .debug_str     0x000021f8      0x5d5 E:/uC-Soft/TI/TIRTOS/PDK_AM~1/packages/ti/starterware/binary/uart_app_echo/obj/am335x-evm/a8host/debug/gcc/echo_app_main.o
                               0x20ed (size before relaxing)
 .debug_str     0x000027cd      0x3b8 E:/uC-Soft/TI/TIRTOS/PDK_AM~1/packages/ti/starterware/binary/examples/example_utils/lib/am335x-evm/a8/debug/gcc\libexample_utils.a(example_utils_mmu.o)
                               0x165b (size before relaxing)
 .debug_str     0x00002b85      0x97d E:/uC-Soft/TI/TIRTOS/PDK_AM~1/packages/ti/starterware/binary/board/lib/am335x-evm/a8/debug/gcc\libboard.a(board.o)
                               0x1e19 (size before relaxing)
 .debug_str     0x00003502       0x83 E:/uC-Soft/TI/TIRTOS/PDK_AM~1/packages/ti/starterware/binary/board/lib/am335x-evm/a8/debug/gcc\libboard.a(dcard.o)
                               0x1a45 (size before relaxing)
 .debug_str     0x00003585       0x71 E:/uC-Soft/TI/TIRTOS/PDK_AM~1/packages/ti/starterware/binary/board/lib/am335x-evm/a8/debug/gcc\libboard.a(platform.o)
                                0x6f1 (size before relaxing)
 .debug_str     0x000035f6       0x49 E:/uC-Soft/TI/TIRTOS/PDK_AM~1/packages/ti/starterware/binary/board/lib/am335x-evm/a8/debug/gcc\libboard.a(pinmux.o)
                               0x1951 (size before relaxing)
 .debug_str     0x0000363f      0x40e E:/uC-Soft/TI/TIRTOS/PDK_AM~1/packages/ti/starterware/binary/board/lib/am335x-evm/a8/debug/gcc\libboard.a(board_am335x.o)
                               0x1e92 (size before relaxing)
 .debug_str     0x00003a4d       0xd6 E:/uC-Soft/TI/TIRTOS/PDK_AM~1/packages/ti/starterware/binary/board/lib/am335x-evm/a8/debug/gcc\libboard.a(dcard_am335x.o)
                               0x1c5a (size before relaxing)
 .debug_str     0x00003b23      0x41b E:/uC-Soft/TI/TIRTOS/PDK_AM~1/packages/ti/starterware/binary/board/lib/am335x-evm/a8/debug/gcc\libboard.a(am335x_gpevm.o)
                               0x22a2 (size before relaxing)
 .debug_str     0x00003f3e       0xc5 E:/uC-Soft/TI/TIRTOS/PDK_AM~1/packages/ti/starterware/binary/board/lib/am335x-evm/a8/debug/gcc\libboard.a(am335x_evmsk.o)
                               0x1d08 (size before relaxing)
 .debug_str     0x00004003      0x138 E:/uC-Soft/TI/TIRTOS/PDK_AM~1/packages/ti/starterware/binary/board/lib/am335x-evm/a8/debug/gcc\libboard.a(am335x_beaglebone.o)
                               0x1d80 (size before relaxing)
 .debug_str     0x0000413b      0x2f7 E:/uC-Soft/TI/TIRTOS/PDK_AM~1/packages/ti/starterware/binary/board/lib/am335x-evm/a8/debug/gcc\libboard.a(am335x_beagleboneblack.o)
                               0x221b (size before relaxing)
 .debug_str     0x00004432       0xfa E:/uC-Soft/TI/TIRTOS/PDK_AM~1/packages/ti/starterware/binary/board/lib/am335x-evm/a8/debug/gcc\libboard.a(am335x_icev1.o)
                               0x1d3d (size before relaxing)
 .debug_str     0x0000452c      0x178 E:/uC-Soft/TI/TIRTOS/PDK_AM~1/packages/ti/starterware/binary/board/lib/am335x-evm/a8/debug/gcc\libboard.a(am335x_icev2.o)
                               0x1e71 (size before relaxing)
 .debug_str     0x000046a4       0x98 E:/uC-Soft/TI/TIRTOS/PDK_AM~1/packages/ti/starterware/binary/board/lib/am335x-evm/a8/debug/gcc\libboard.a(am335x_amic110.o)
                               0x1e7d (size before relaxing)
 .debug_str     0x0000473c       0x36 E:/uC-Soft/TI/TIRTOS/PDK_AM~1/packages/ti/starterware/binary/board/lib/am335x-evm/a8/debug/gcc\libboard.a(am335x_custom.o)
                               0x1906 (size before relaxing)
 .debug_str     0x00004772      0x855 E:/uC-Soft/TI/TIRTOS/PDK_AM~1/packages/ti/starterware/binary/board/lib/am335x-evm/a8/debug/gcc\libboard.a(am335x_gpevm_pinmux_data.o)
                               0x1c47 (size before relaxing)
 .debug_str     0x00004fc7       0x2f E:/uC-Soft/TI/TIRTOS/PDK_AM~1/packages/ti/starterware/binary/board/lib/am335x-evm/a8/debug/gcc\libboard.a(am335x_evmsk_pinmux_data.o)
                               0x1bc7 (size before relaxing)
 .debug_str     0x00004ff6       0x27 E:/uC-Soft/TI/TIRTOS/PDK_AM~1/packages/ti/starterware/binary/board/lib/am335x-evm/a8/debug/gcc\libboard.a(am335x_beaglebone_pinmux_data.o)
                               0x1bb2 (size before relaxing)
 .debug_str     0x0000501d       0x47 E:/uC-Soft/TI/TIRTOS/PDK_AM~1/packages/ti/starterware/binary/board/lib/am335x-evm/a8/debug/gcc\libboard.a(am335x_beagleboneblack_pinmux_data.o)
                               0x1c06 (size before relaxing)
 .debug_str     0x00005064       0x64 E:/uC-Soft/TI/TIRTOS/PDK_AM~1/packages/ti/starterware/binary/board/lib/am335x-evm/a8/debug/gcc\libboard.a(am335x_icev1_pinmux_data.o)
                               0x1be3 (size before relaxing)
 .debug_str     0x000050c8       0x43 E:/uC-Soft/TI/TIRTOS/PDK_AM~1/packages/ti/starterware/binary/board/lib/am335x-evm/a8/debug/gcc\libboard.a(am335x_icev2_pinmux_data.o)
                               0x1c5e (size before relaxing)
 .debug_str     0x0000510b       0xd5 E:/uC-Soft/TI/TIRTOS/PDK_AM~1/packages/ti/starterware/binary/board/lib/am335x-evm/a8/debug/gcc\libboard.a(am335x_amic11x_pinmux_data.o)
                               0x1caa (size before relaxing)
 .debug_str     0x000051e0      0x19c E:/uC-Soft/TI/TIRTOS/PDK_AM~1/packages/ti/starterware/binary/board/lib/am335x-evm/a8/debug/gcc\libboard.a(am335x_lcd4_dcard.o)
                               0x1df1 (size before relaxing)
 .debug_str     0x0000537c      0x3cc E:/uC-Soft/TI/TIRTOS/PDK_AM~1/packages/ti/starterware/binary/utils/lib/am335x-evm/a8/debug/gcc\libutils.a(console_utils.o)
                                0x9bc (size before relaxing)
 .debug_str     0x00005748      0x51f E:/uC-Soft/TI/TIRTOS/PDK_AM~1/packages/ti/starterware/binary/utils/lib/am335x-evm/a8/debug/gcc\libutils.a(i2c_utils.o)
                               0x1a5a (size before relaxing)
 .debug_str     0x00005c67      0x3bd E:/uC-Soft/TI/TIRTOS/PDK_AM~1/packages/ti/starterware/binary/utils/lib/am335x-evm/a8/debug/gcc\libutils.a(time_utils.o)
                                0x9ea (size before relaxing)
 .debug_str     0x00006024      0x21f E:/uC-Soft/TI/TIRTOS/PDK_AM~1/packages/ti/starterware/binary/utils/lib/am335x-evm/a8/debug/gcc\libutils.a(dmtimer_utils.o)
                               0x1765 (size before relaxing)
 .debug_str     0x00006243      0x4df E:/uC-Soft/TI/TIRTOS/PDK_AM~1/packages/ti/starterware/binary/utils/lib/am335x-evm/a8/debug/gcc\libutils.a(console_utils_uart.o)
                               0x21ad (size before relaxing)
 .debug_str     0x00006722      0x168 E:/uC-Soft/TI/TIRTOS/PDK_AM~1/packages/ti/starterware/binary/soc/lib/am335x-evm/a8/debug/gcc\libsoc.a(soc.o)
                                0x7a9 (size before relaxing)
 .debug_str     0x0000688a       0x65 E:/uC-Soft/TI/TIRTOS/PDK_AM~1/packages/ti/starterware/binary/soc/lib/am335x-evm/a8/debug/gcc\libsoc.a(startup.o)
                               0x1326 (size before relaxing)
 .debug_str     0x000068ef      0x52f E:/uC-Soft/TI/TIRTOS/PDK_AM~1/packages/ti/starterware/binary/soc/lib/am335x-evm/a8/debug/gcc\libsoc.a(am335x_chipdb.o)
                               0x185c (size before relaxing)
 .debug_str     0x00006e1e       0x1a E:/uC-Soft/TI/TIRTOS/PDK_AM~1/packages/ti/starterware/binary/soc/lib/am335x-evm/a8/debug/gcc\libsoc.a(hw_am335x_chipdb.o)
                               0x1355 (size before relaxing)
 .debug_str     0x00006e38       0x23 E:/uC-Soft/TI/TIRTOS/PDK_AM~1/packages/ti/starterware/binary/soc/lib/am335x-evm/a8/debug/gcc\libsoc.a(hw_am335x_chipdb_baseaddr.o)
                               0x1318 (size before relaxing)
 .debug_str     0x00006e5b      0x15e E:/uC-Soft/TI/TIRTOS/PDK_AM~1/packages/ti/starterware/binary/soc/lib/am335x-evm/a8/debug/gcc\libsoc.a(intc.o)
                                0x893 (size before relaxing)
 .debug_str     0x00006fb9      0x430 E:/uC-Soft/TI/TIRTOS/PDK_AM~1/packages/ti/starterware/binary/soc/lib/am335x-evm/a8/debug/gcc\libsoc.a(cache_arm.o)
                                0xa65 (size before relaxing)
 .debug_str     0x000073e9       0xec E:/uC-Soft/TI/TIRTOS/PDK_AM~1/packages/ti/starterware/binary/soc/lib/am335x-evm/a8/debug/gcc\libsoc.a(mmu_arm.o)
                                0xa2e (size before relaxing)
 .debug_str     0x000074d5       0x61 E:/uC-Soft/TI/TIRTOS/PDK_AM~1/packages/ti/starterware/binary/soc/lib/am335x-evm/a8/debug/gcc\libsoc.a(am335x_prcm.o)
                               0x137b (size before relaxing)
 .debug_str     0x00007536       0x5d E:/uC-Soft/TI/TIRTOS/PDK_AM~1/packages/ti/starterware/binary/soc/lib/am335x-evm/a8/debug/gcc\libsoc.a(cpu.o)
                                0x662 (size before relaxing)
 .debug_str     0x00007593      0x5e4 E:/uC-Soft/TI/TIRTOS/PDK_AM~1/packages/ti/starterware/binary/dal/lib/am335x-evm/a8/debug/gcc\libdal.a(i2c.o)
                                0xd70 (size before relaxing)
 .debug_str     0x00007b77      0x870 E:/uC-Soft/TI/TIRTOS/PDK_AM~1/packages/ti/starterware/binary/dal/lib/am335x-evm/a8/debug/gcc\libdal.a(uart.o)
                               0x1354 (size before relaxing)
 .debug_str     0x000083e7      0x36c E:/uC-Soft/TI/TIRTOS/PDK_AM~1/packages/ti/starterware/binary/dal/lib/am335x-evm/a8/debug/gcc\libdal.a(gpio.o)
                                0xa2a (size before relaxing)
 .debug_str     0x00008753      0x2c7 E:/uC-Soft/TI/TIRTOS/PDK_AM~1/packages/ti/starterware/binary/dal/lib/am335x-evm/a8/debug/gcc\libdal.a(dmtimer.o)
                                0xaa4 (size before relaxing)

.debug_frame    0x00000000     0x353c
 .debug_frame   0x00000000      0x168 E:/uC-Soft/TI/TIRTOS/PDK_AM~1/packages/ti/starterware/binary/uart_app_echo/obj/am335x-evm/a8host/debug/gcc/uart_app.o
 .debug_frame   0x00000168       0xb4 E:/uC-Soft/TI/TIRTOS/PDK_AM~1/packages/ti/starterware/binary/uart_app_echo/obj/am335x-evm/a8host/debug/gcc/echo_app_main.o
 .debug_frame   0x0000021c       0x2c E:/uC-Soft/TI/TIRTOS/PDK_AM~1/packages/ti/starterware/binary/examples/example_utils/lib/am335x-evm/a8/debug/gcc\libexample_utils.a(example_utils_mmu.o)
 .debug_frame   0x00000248      0x330 E:/uC-Soft/TI/TIRTOS/PDK_AM~1/packages/ti/starterware/binary/board/lib/am335x-evm/a8/debug/gcc\libboard.a(board.o)
 .debug_frame   0x00000578      0x110 E:/uC-Soft/TI/TIRTOS/PDK_AM~1/packages/ti/starterware/binary/board/lib/am335x-evm/a8/debug/gcc\libboard.a(dcard.o)
 .debug_frame   0x00000688       0x6c E:/uC-Soft/TI/TIRTOS/PDK_AM~1/packages/ti/starterware/binary/board/lib/am335x-evm/a8/debug/gcc\libboard.a(platform.o)
 .debug_frame   0x000006f4       0x54 E:/uC-Soft/TI/TIRTOS/PDK_AM~1/packages/ti/starterware/binary/board/lib/am335x-evm/a8/debug/gcc\libboard.a(pinmux.o)
 .debug_frame   0x00000748      0x118 E:/uC-Soft/TI/TIRTOS/PDK_AM~1/packages/ti/starterware/binary/board/lib/am335x-evm/a8/debug/gcc\libboard.a(board_am335x.o)
 .debug_frame   0x00000860       0xb8 E:/uC-Soft/TI/TIRTOS/PDK_AM~1/packages/ti/starterware/binary/board/lib/am335x-evm/a8/debug/gcc\libboard.a(dcard_am335x.o)
 .debug_frame   0x00000918       0x94 E:/uC-Soft/TI/TIRTOS/PDK_AM~1/packages/ti/starterware/binary/board/lib/am335x-evm/a8/debug/gcc\libboard.a(am335x_gpevm.o)
 .debug_frame   0x000009ac       0xb8 E:/uC-Soft/TI/TIRTOS/PDK_AM~1/packages/ti/starterware/binary/board/lib/am335x-evm/a8/debug/gcc\libboard.a(am335x_beagleboneblack.o)
 .debug_frame   0x00000a64       0x34 E:/uC-Soft/TI/TIRTOS/PDK_AM~1/packages/ti/starterware/binary/board/lib/am335x-evm/a8/debug/gcc\libboard.a(am335x_icev2.o)
 .debug_frame   0x00000a98       0x34 E:/uC-Soft/TI/TIRTOS/PDK_AM~1/packages/ti/starterware/binary/board/lib/am335x-evm/a8/debug/gcc\libboard.a(am335x_amic110.o)
 .debug_frame   0x00000acc       0x50 E:/uC-Soft/TI/TIRTOS/PDK_AM~1/packages/ti/starterware/binary/board/lib/am335x-evm/a8/debug/gcc\libboard.a(am335x_lcd4_dcard.o)
 .debug_frame   0x00000b1c      0x2ac E:/uC-Soft/TI/TIRTOS/PDK_AM~1/packages/ti/starterware/binary/utils/lib/am335x-evm/a8/debug/gcc\libutils.a(console_utils.o)
 .debug_frame   0x00000dc8      0x1fc E:/uC-Soft/TI/TIRTOS/PDK_AM~1/packages/ti/starterware/binary/utils/lib/am335x-evm/a8/debug/gcc\libutils.a(i2c_utils.o)
 .debug_frame   0x00000fc4       0xf8 E:/uC-Soft/TI/TIRTOS/PDK_AM~1/packages/ti/starterware/binary/utils/lib/am335x-evm/a8/debug/gcc\libutils.a(time_utils.o)
 .debug_frame   0x000010bc       0xa4 E:/uC-Soft/TI/TIRTOS/PDK_AM~1/packages/ti/starterware/binary/utils/lib/am335x-evm/a8/debug/gcc\libutils.a(dmtimer_utils.o)
 .debug_frame   0x00001160      0x210 E:/uC-Soft/TI/TIRTOS/PDK_AM~1/packages/ti/starterware/binary/utils/lib/am335x-evm/a8/debug/gcc\libutils.a(console_utils_uart.o)
 .debug_frame   0x00001370       0xac E:/uC-Soft/TI/TIRTOS/PDK_AM~1/packages/ti/starterware/binary/soc/lib/am335x-evm/a8/debug/gcc\libsoc.a(soc.o)
 .debug_frame   0x0000141c       0x4c E:/uC-Soft/TI/TIRTOS/PDK_AM~1/packages/ti/starterware/binary/soc/lib/am335x-evm/a8/debug/gcc\libsoc.a(startup.o)
 .debug_frame   0x00001468      0x268 E:/uC-Soft/TI/TIRTOS/PDK_AM~1/packages/ti/starterware/binary/soc/lib/am335x-evm/a8/debug/gcc\libsoc.a(am335x_chipdb.o)
 .debug_frame   0x000016d0       0x50 E:/uC-Soft/TI/TIRTOS/PDK_AM~1/packages/ti/starterware/binary/soc/lib/am335x-evm/a8/debug/gcc\libsoc.a(hw_am335x_chipdb.o)
 .debug_frame   0x00001720      0x1d0 E:/uC-Soft/TI/TIRTOS/PDK_AM~1/packages/ti/starterware/binary/soc/lib/am335x-evm/a8/debug/gcc\libsoc.a(intc.o)
 .debug_frame   0x000018f0      0x250 E:/uC-Soft/TI/TIRTOS/PDK_AM~1/packages/ti/starterware/binary/soc/lib/am335x-evm/a8/debug/gcc\libsoc.a(cache_arm.o)
 .debug_frame   0x00001b40       0x90 E:/uC-Soft/TI/TIRTOS/PDK_AM~1/packages/ti/starterware/binary/soc/lib/am335x-evm/a8/debug/gcc\libsoc.a(mmu_arm.o)
 .debug_frame   0x00001bd0       0x94 E:/uC-Soft/TI/TIRTOS/PDK_AM~1/packages/ti/starterware/binary/soc/lib/am335x-evm/a8/debug/gcc\libsoc.a(am335x_prcm.o)
 .debug_frame   0x00001c64       0xc8 E:/uC-Soft/TI/TIRTOS/PDK_AM~1/packages/ti/starterware/binary/soc/lib/am335x-evm/a8/debug/gcc\libsoc.a(cpu.o)
 .debug_frame   0x00001d2c      0x5c0 E:/uC-Soft/TI/TIRTOS/PDK_AM~1/packages/ti/starterware/binary/dal/lib/am335x-evm/a8/debug/gcc\libdal.a(i2c.o)
 .debug_frame   0x000022ec      0x8e0 E:/uC-Soft/TI/TIRTOS/PDK_AM~1/packages/ti/starterware/binary/dal/lib/am335x-evm/a8/debug/gcc\libdal.a(uart.o)
 .debug_frame   0x00002bcc      0x418 E:/uC-Soft/TI/TIRTOS/PDK_AM~1/packages/ti/starterware/binary/dal/lib/am335x-evm/a8/debug/gcc\libdal.a(gpio.o)
 .debug_frame   0x00002fe4      0x3a8 E:/uC-Soft/TI/TIRTOS/PDK_AM~1/packages/ti/starterware/binary/dal/lib/am335x-evm/a8/debug/gcc\libdal.a(dmtimer.o)
 .debug_frame   0x0000338c       0x20 e:/uc-soft/ti/tirtos/gcc-arm-none-eabi-6-2017-q1-update/bin/../lib/gcc/arm-none-eabi/6.3.1/hard\libgcc.a(_udivsi3.o)
 .debug_frame   0x000033ac       0x20 e:/uc-soft/ti/tirtos/gcc-arm-none-eabi-6-2017-q1-update/bin/../lib/gcc/arm-none-eabi/6.3.1/hard\libgcc.a(_divsi3.o)
 .debug_frame   0x000033cc       0x4c e:/uc-soft/ti/tirtos/gcc-arm-none-eabi-6-2017-q1-update/bin/../lib/gcc/arm-none-eabi/6.3.1/hard\libgcc.a(_arm_addsubsf3.o)
 .debug_frame   0x00003418       0x2c e:/uc-soft/ti/tirtos/gcc-arm-none-eabi-6-2017-q1-update/bin/../lib/gcc/arm-none-eabi/6.3.1/hard\libgcc.a(_aeabi_uldivmod.o)
 .debug_frame   0x00003444       0x20 e:/uc-soft/ti/tirtos/gcc-arm-none-eabi-6-2017-q1-update/bin/../lib/gcc/arm-none-eabi/6.3.1/hard\libgcc.a(_fixunssfdi.o)
 .debug_frame   0x00003464       0x20 e:/uc-soft/ti/tirtos/gcc-arm-none-eabi-6-2017-q1-update/bin/../lib/gcc/arm-none-eabi/6.3.1/hard\libgcc.a(_fixunsdfdi.o)
 .debug_frame   0x00003484       0x48 e:/uc-soft/ti/tirtos/gcc-arm-none-eabi-6-2017-q1-update/bin/../lib/gcc/arm-none-eabi/6.3.1/hard\libgcc.a(_udivmoddi4.o)
 .debug_frame   0x000034cc       0x20 E:/uC-Soft/TI/TIRTOS/gcc-arm-none-eabi-6-2017-q1-update/arm-none-eabi/lib/hard\libc_nano.a(lib_a-memcpy-stub.o)
 .debug_frame   0x000034ec       0x20 E:/uC-Soft/TI/TIRTOS/gcc-arm-none-eabi-6-2017-q1-update/arm-none-eabi/lib/hard\libc_nano.a(lib_a-memset.o)
 .debug_frame   0x0000350c       0x30 E:/uC-Soft/TI/TIRTOS/gcc-arm-none-eabi-6-2017-q1-update/arm-none-eabi/lib/hard\libc_nano.a(lib_a-strncmp.o)
